
concurrency:     file format elf64-x86-64


Disassembly of section .init:

0000000000004000 <_init>:
    4000:	f3 0f 1e fa          	endbr64 
    4004:	48 83 ec 08          	sub    $0x8,%rsp
    4008:	48 8b 05 69 fd 02 00 	mov    0x2fd69(%rip),%rax        # 33d78 <__gmon_start__>
    400f:	48 85 c0             	test   %rax,%rax
    4012:	74 02                	je     4016 <_init+0x16>
    4014:	ff d0                	callq  *%rax
    4016:	48 83 c4 08          	add    $0x8,%rsp
    401a:	c3                   	retq   

Disassembly of section .plt:

0000000000004020 <.plt>:
    4020:	ff 35 42 f9 02 00    	pushq  0x2f942(%rip)        # 33968 <_GLOBAL_OFFSET_TABLE_+0x8>
    4026:	ff 25 44 f9 02 00    	jmpq   *0x2f944(%rip)        # 33970 <_GLOBAL_OFFSET_TABLE_+0x10>
    402c:	0f 1f 40 00          	nopl   0x0(%rax)

0000000000004030 <dl_iterate_phdr@plt>:
    4030:	ff 25 42 f9 02 00    	jmpq   *0x2f942(%rip)        # 33978 <dl_iterate_phdr@GLIBC_2.2.5>
    4036:	68 00 00 00 00       	pushq  $0x0
    403b:	e9 e0 ff ff ff       	jmpq   4020 <.plt>

0000000000004040 <free@plt>:
    4040:	ff 25 3a f9 02 00    	jmpq   *0x2f93a(%rip)        # 33980 <free@GLIBC_2.2.5>
    4046:	68 01 00 00 00       	pushq  $0x1
    404b:	e9 d0 ff ff ff       	jmpq   4020 <.plt>

0000000000004050 <abort@plt>:
    4050:	ff 25 32 f9 02 00    	jmpq   *0x2f932(%rip)        # 33988 <abort@GLIBC_2.2.5>
    4056:	68 02 00 00 00       	pushq  $0x2
    405b:	e9 c0 ff ff ff       	jmpq   4020 <.plt>

0000000000004060 <__errno_location@plt>:
    4060:	ff 25 2a f9 02 00    	jmpq   *0x2f92a(%rip)        # 33990 <__errno_location@GLIBC_2.2.5>
    4066:	68 03 00 00 00       	pushq  $0x3
    406b:	e9 b0 ff ff ff       	jmpq   4020 <.plt>

0000000000004070 <getpid@plt>:
    4070:	ff 25 22 f9 02 00    	jmpq   *0x2f922(%rip)        # 33998 <getpid@GLIBC_2.2.5>
    4076:	68 04 00 00 00       	pushq  $0x4
    407b:	e9 a0 ff ff ff       	jmpq   4020 <.plt>

0000000000004080 <__xstat64@plt>:
    4080:	ff 25 1a f9 02 00    	jmpq   *0x2f91a(%rip)        # 339a0 <__xstat64@GLIBC_2.2.5>
    4086:	68 05 00 00 00       	pushq  $0x5
    408b:	e9 90 ff ff ff       	jmpq   4020 <.plt>

0000000000004090 <strlen@plt>:
    4090:	ff 25 12 f9 02 00    	jmpq   *0x2f912(%rip)        # 339a8 <strlen@GLIBC_2.2.5>
    4096:	68 06 00 00 00       	pushq  $0x6
    409b:	e9 80 ff ff ff       	jmpq   4020 <.plt>

00000000000040a0 <snprintf@plt>:
    40a0:	ff 25 0a f9 02 00    	jmpq   *0x2f90a(%rip)        # 339b0 <snprintf@GLIBC_2.2.5>
    40a6:	68 07 00 00 00       	pushq  $0x7
    40ab:	e9 70 ff ff ff       	jmpq   4020 <.plt>

00000000000040b0 <strrchr@plt>:
    40b0:	ff 25 02 f9 02 00    	jmpq   *0x2f902(%rip)        # 339b8 <strrchr@GLIBC_2.2.5>
    40b6:	68 08 00 00 00       	pushq  $0x8
    40bb:	e9 60 ff ff ff       	jmpq   4020 <.plt>

00000000000040c0 <lseek@plt>:
    40c0:	ff 25 fa f8 02 00    	jmpq   *0x2f8fa(%rip)        # 339c0 <lseek@GLIBC_2.2.5>
    40c6:	68 09 00 00 00       	pushq  $0x9
    40cb:	e9 50 ff ff ff       	jmpq   4020 <.plt>

00000000000040d0 <__fxstatat64@plt>:
    40d0:	ff 25 f2 f8 02 00    	jmpq   *0x2f8f2(%rip)        # 339c8 <__fxstatat64@GLIBC_2.4>
    40d6:	68 0a 00 00 00       	pushq  $0xa
    40db:	e9 40 ff ff ff       	jmpq   4020 <.plt>

00000000000040e0 <memset@plt>:
    40e0:	ff 25 ea f8 02 00    	jmpq   *0x2f8ea(%rip)        # 339d0 <memset@GLIBC_2.2.5>
    40e6:	68 0b 00 00 00       	pushq  $0xb
    40eb:	e9 30 ff ff ff       	jmpq   4020 <.plt>

00000000000040f0 <close@plt>:
    40f0:	ff 25 e2 f8 02 00    	jmpq   *0x2f8e2(%rip)        # 339d8 <close@GLIBC_2.2.5>
    40f6:	68 0c 00 00 00       	pushq  $0xc
    40fb:	e9 20 ff ff ff       	jmpq   4020 <.plt>

0000000000004100 <read@plt>:
    4100:	ff 25 da f8 02 00    	jmpq   *0x2f8da(%rip)        # 339e0 <read@GLIBC_2.2.5>
    4106:	68 0d 00 00 00       	pushq  $0xd
    410b:	e9 10 ff ff ff       	jmpq   4020 <.plt>

0000000000004110 <__tls_get_addr@plt>:
    4110:	ff 25 d2 f8 02 00    	jmpq   *0x2f8d2(%rip)        # 339e8 <__tls_get_addr@GLIBC_2.3>
    4116:	68 0e 00 00 00       	pushq  $0xe
    411b:	e9 00 ff ff ff       	jmpq   4020 <.plt>

0000000000004120 <__fxstat64@plt>:
    4120:	ff 25 ca f8 02 00    	jmpq   *0x2f8ca(%rip)        # 339f0 <__fxstat64@GLIBC_2.2.5>
    4126:	68 0f 00 00 00       	pushq  $0xf
    412b:	e9 f0 fe ff ff       	jmpq   4020 <.plt>

0000000000004130 <strcmp@plt>:
    4130:	ff 25 c2 f8 02 00    	jmpq   *0x2f8c2(%rip)        # 339f8 <strcmp@GLIBC_2.2.5>
    4136:	68 10 00 00 00       	pushq  $0x10
    413b:	e9 e0 fe ff ff       	jmpq   4020 <.plt>

0000000000004140 <memcpy@plt>:
    4140:	ff 25 ba f8 02 00    	jmpq   *0x2f8ba(%rip)        # 33a00 <memcpy@GLIBC_2.14>
    4146:	68 11 00 00 00       	pushq  $0x11
    414b:	e9 d0 fe ff ff       	jmpq   4020 <.plt>

0000000000004150 <malloc@plt>:
    4150:	ff 25 b2 f8 02 00    	jmpq   *0x2f8b2(%rip)        # 33a08 <malloc@GLIBC_2.2.5>
    4156:	68 12 00 00 00       	pushq  $0x12
    415b:	e9 c0 fe ff ff       	jmpq   4020 <.plt>

0000000000004160 <__fxstat@plt>:
    4160:	ff 25 aa f8 02 00    	jmpq   *0x2f8aa(%rip)        # 33a10 <__fxstat@GLIBC_2.2.5>
    4166:	68 13 00 00 00       	pushq  $0x13
    416b:	e9 b0 fe ff ff       	jmpq   4020 <.plt>

0000000000004170 <realloc@plt>:
    4170:	ff 25 a2 f8 02 00    	jmpq   *0x2f8a2(%rip)        # 33a18 <realloc@GLIBC_2.2.5>
    4176:	68 14 00 00 00       	pushq  $0x14
    417b:	e9 a0 fe ff ff       	jmpq   4020 <.plt>

0000000000004180 <open@plt>:
    4180:	ff 25 9a f8 02 00    	jmpq   *0x2f89a(%rip)        # 33a20 <open@GLIBC_2.2.5>
    4186:	68 15 00 00 00       	pushq  $0x15
    418b:	e9 90 fe ff ff       	jmpq   4020 <.plt>

0000000000004190 <__lxstat64@plt>:
    4190:	ff 25 92 f8 02 00    	jmpq   *0x2f892(%rip)        # 33a28 <__lxstat64@GLIBC_2.2.5>
    4196:	68 16 00 00 00       	pushq  $0x16
    419b:	e9 80 fe ff ff       	jmpq   4020 <.plt>

00000000000041a0 <bsearch@plt>:
    41a0:	ff 25 8a f8 02 00    	jmpq   *0x2f88a(%rip)        # 33a30 <bsearch@GLIBC_2.2.5>
    41a6:	68 17 00 00 00       	pushq  $0x17
    41ab:	e9 70 fe ff ff       	jmpq   4020 <.plt>

00000000000041b0 <_Unwind_Resume@plt>:
    41b0:	ff 25 82 f8 02 00    	jmpq   *0x2f882(%rip)        # 33a38 <_Unwind_Resume@GCC_3.0>
    41b6:	68 18 00 00 00       	pushq  $0x18
    41bb:	e9 60 fe ff ff       	jmpq   4020 <.plt>

00000000000041c0 <__cxa_finalize@plt>:
    41c0:	ff 25 7a f8 02 00    	jmpq   *0x2f87a(%rip)        # 33a40 <__cxa_finalize@GLIBC_2.2.5>
    41c6:	68 19 00 00 00       	pushq  $0x19
    41cb:	e9 50 fe ff ff       	jmpq   4020 <.plt>

Disassembly of section .text:

00000000000041d0 <_start>:
    41d0:	f3 0f 1e fa          	endbr64 
    41d4:	31 ed                	xor    %ebp,%ebp
    41d6:	49 89 d1             	mov    %rdx,%r9
    41d9:	5e                   	pop    %rsi
    41da:	48 89 e2             	mov    %rsp,%rdx
    41dd:	48 83 e4 f0          	and    $0xfffffffffffffff0,%rsp
    41e1:	50                   	push   %rax
    41e2:	54                   	push   %rsp
    41e3:	4c 8d 05 e6 0e 02 00 	lea    0x20ee6(%rip),%r8        # 250d0 <__libc_csu_fini>
    41ea:	48 8d 0d 6f 0e 02 00 	lea    0x20e6f(%rip),%rcx        # 25060 <__libc_csu_init>
    41f1:	48 8d 3d d8 02 00 00 	lea    0x2d8(%rip),%rdi        # 44d0 <main>
    41f8:	ff 15 0a fb 02 00    	callq  *0x2fb0a(%rip)        # 33d08 <__libc_start_main@GLIBC_2.2.5>
    41fe:	f4                   	hlt    

00000000000041ff <.annobin_init.c>:
    41ff:	90                   	nop

0000000000004200 <deregister_tm_clones>:
    4200:	48 8d 3d 29 fe 02 00 	lea    0x2fe29(%rip),%rdi        # 34030 <__TMC_END__>
    4207:	48 8d 05 22 fe 02 00 	lea    0x2fe22(%rip),%rax        # 34030 <__TMC_END__>
    420e:	48 39 f8             	cmp    %rdi,%rax
    4211:	74 15                	je     4228 <deregister_tm_clones+0x28>
    4213:	48 8b 05 9e f8 02 00 	mov    0x2f89e(%rip),%rax        # 33ab8 <_ITM_deregisterTMCloneTable>
    421a:	48 85 c0             	test   %rax,%rax
    421d:	74 09                	je     4228 <deregister_tm_clones+0x28>
    421f:	ff e0                	jmpq   *%rax
    4221:	0f 1f 80 00 00 00 00 	nopl   0x0(%rax)
    4228:	c3                   	retq   
    4229:	0f 1f 80 00 00 00 00 	nopl   0x0(%rax)

0000000000004230 <register_tm_clones>:
    4230:	48 8d 3d f9 fd 02 00 	lea    0x2fdf9(%rip),%rdi        # 34030 <__TMC_END__>
    4237:	48 8d 35 f2 fd 02 00 	lea    0x2fdf2(%rip),%rsi        # 34030 <__TMC_END__>
    423e:	48 29 fe             	sub    %rdi,%rsi
    4241:	48 89 f0             	mov    %rsi,%rax
    4244:	48 c1 ee 3f          	shr    $0x3f,%rsi
    4248:	48 c1 f8 03          	sar    $0x3,%rax
    424c:	48 01 c6             	add    %rax,%rsi
    424f:	48 d1 fe             	sar    %rsi
    4252:	74 14                	je     4268 <register_tm_clones+0x38>
    4254:	48 8b 05 2d fd 02 00 	mov    0x2fd2d(%rip),%rax        # 33f88 <_ITM_registerTMCloneTable>
    425b:	48 85 c0             	test   %rax,%rax
    425e:	74 08                	je     4268 <register_tm_clones+0x38>
    4260:	ff e0                	jmpq   *%rax
    4262:	66 0f 1f 44 00 00    	nopw   0x0(%rax,%rax,1)
    4268:	c3                   	retq   
    4269:	0f 1f 80 00 00 00 00 	nopl   0x0(%rax)

0000000000004270 <__do_global_dtors_aux>:
    4270:	f3 0f 1e fa          	endbr64 
    4274:	80 3d b5 fd 02 00 00 	cmpb   $0x0,0x2fdb5(%rip)        # 34030 <__TMC_END__>
    427b:	75 2b                	jne    42a8 <__do_global_dtors_aux+0x38>
    427d:	55                   	push   %rbp
    427e:	48 83 3d 3a fd 02 00 	cmpq   $0x0,0x2fd3a(%rip)        # 33fc0 <__cxa_finalize@GLIBC_2.2.5>
    4285:	00 
    4286:	48 89 e5             	mov    %rsp,%rbp
    4289:	74 0c                	je     4297 <__do_global_dtors_aux+0x27>
    428b:	48 8d 3d fe dc 02 00 	lea    0x2dcfe(%rip),%rdi        # 31f90 <__dso_handle>
    4292:	e8 29 ff ff ff       	callq  41c0 <__cxa_finalize@plt>
    4297:	e8 64 ff ff ff       	callq  4200 <deregister_tm_clones>
    429c:	c6 05 8d fd 02 00 01 	movb   $0x1,0x2fd8d(%rip)        # 34030 <__TMC_END__>
    42a3:	5d                   	pop    %rbp
    42a4:	c3                   	retq   
    42a5:	0f 1f 00             	nopl   (%rax)
    42a8:	c3                   	retq   
    42a9:	0f 1f 80 00 00 00 00 	nopl   0x0(%rax)

00000000000042b0 <frame_dummy>:
    42b0:	f3 0f 1e fa          	endbr64 
    42b4:	e9 77 ff ff ff       	jmpq   4230 <register_tm_clones>
    42b9:	0f 1f 80 00 00 00 00 	nopl   0x0(%rax)

00000000000042c0 <_ZN3std2rt10lang_start28_$u7b$$u7b$closure$u7d$$u7d$17h36b7bd62b69927d0E>:
    42c0:	53                   	push   %rbx
    42c1:	48 83 ec 10          	sub    $0x10,%rsp
    42c5:	48 89 f8             	mov    %rdi,%rax
    42c8:	48 89 e3             	mov    %rsp,%rbx
    42cb:	48 89 df             	mov    %rbx,%rdi
    42ce:	ff 10                	callq  *(%rax)
    42d0:	48 89 df             	mov    %rbx,%rdi
    42d3:	e8 e8 00 00 00       	callq  43c0 <_ZN86_$LT$core..result..Result$LT$$LP$$RP$$C$E$GT$$u20$as$u20$std..process..Termination$GT$6report17h2e8dec902d26567dE>
    42d8:	48 83 c4 10          	add    $0x10,%rsp
    42dc:	5b                   	pop    %rbx
    42dd:	c3                   	retq   
    42de:	66 90                	xchg   %ax,%ax

00000000000042e0 <_ZN4core3ops8function6FnOnce40call_once$u7b$$u7b$vtable.shim$u7d$$u7d$17h066e6158e1fa38a5E>:
    42e0:	53                   	push   %rbx
    42e1:	48 83 ec 10          	sub    $0x10,%rsp
    42e5:	48 89 f8             	mov    %rdi,%rax
    42e8:	48 89 e3             	mov    %rsp,%rbx
    42eb:	48 89 df             	mov    %rbx,%rdi
    42ee:	ff 10                	callq  *(%rax)
    42f0:	48 89 df             	mov    %rbx,%rdi
    42f3:	e8 c8 00 00 00       	callq  43c0 <_ZN86_$LT$core..result..Result$LT$$LP$$RP$$C$E$GT$$u20$as$u20$std..process..Termination$GT$6report17h2e8dec902d26567dE>
    42f8:	48 83 c4 10          	add    $0x10,%rsp
    42fc:	5b                   	pop    %rbx
    42fd:	c3                   	retq   
    42fe:	66 90                	xchg   %ax,%ax

0000000000004300 <_ZN4core3ptr18real_drop_in_place17h98f0213dc55de7dcE>:
    4300:	c3                   	retq   
    4301:	66 2e 0f 1f 84 00 00 	nopw   %cs:0x0(%rax,%rax,1)
    4308:	00 00 00 
    430b:	0f 1f 44 00 00       	nopl   0x0(%rax,%rax,1)

0000000000004310 <_ZN4core3ptr18real_drop_in_place17h31442ed16cd6c539E.llvm.9782508449811801216>:
    4310:	41 57                	push   %r15
    4312:	41 56                	push   %r14
    4314:	53                   	push   %rbx
    4315:	80 3f 02             	cmpb   $0x2,(%rdi)
    4318:	73 06                	jae    4320 <_ZN4core3ptr18real_drop_in_place17h31442ed16cd6c539E.llvm.9782508449811801216+0x10>
    431a:	5b                   	pop    %rbx
    431b:	41 5e                	pop    %r14
    431d:	41 5f                	pop    %r15
    431f:	c3                   	retq   
    4320:	49 89 ff             	mov    %rdi,%r15
    4323:	48 8b 5f 08          	mov    0x8(%rdi),%rbx
    4327:	48 8b 3b             	mov    (%rbx),%rdi
    432a:	48 8b 43 08          	mov    0x8(%rbx),%rax
    432e:	ff 10                	callq  *(%rax)
    4330:	48 8b 43 08          	mov    0x8(%rbx),%rax
    4334:	48 8b 70 08          	mov    0x8(%rax),%rsi
    4338:	48 85 f6             	test   %rsi,%rsi
    433b:	74 0d                	je     434a <_ZN4core3ptr18real_drop_in_place17h31442ed16cd6c539E.llvm.9782508449811801216+0x3a>
    433d:	48 8b 3b             	mov    (%rbx),%rdi
    4340:	48 8b 50 10          	mov    0x10(%rax),%rdx
    4344:	ff 15 2e f9 02 00    	callq  *0x2f92e(%rip)        # 33c78 <_GLOBAL_OFFSET_TABLE_+0x318>
    434a:	49 8b 7f 08          	mov    0x8(%r15),%rdi
    434e:	be 18 00 00 00       	mov    $0x18,%esi
    4353:	ba 08 00 00 00       	mov    $0x8,%edx
    4358:	5b                   	pop    %rbx
    4359:	41 5e                	pop    %r14
    435b:	41 5f                	pop    %r15
    435d:	ff 25 15 f9 02 00    	jmpq   *0x2f915(%rip)        # 33c78 <_GLOBAL_OFFSET_TABLE_+0x318>
    4363:	49 89 c6             	mov    %rax,%r14
    4366:	48 8b 3b             	mov    (%rbx),%rdi
    4369:	48 8b 73 08          	mov    0x8(%rbx),%rsi
    436d:	e8 1e 00 00 00       	callq  4390 <_ZN5alloc5alloc8box_free17h0b47e71aa4e0342eE.llvm.9782508449811801216>
    4372:	49 8b 7f 08          	mov    0x8(%r15),%rdi
    4376:	e8 35 00 00 00       	callq  43b0 <_ZN5alloc5alloc8box_free17h5c17c42c15b35db8E.llvm.9782508449811801216>
    437b:	4c 89 f7             	mov    %r14,%rdi
    437e:	e8 2d fe ff ff       	callq  41b0 <_Unwind_Resume@plt>
    4383:	0f 0b                	ud2    
    4385:	66 2e 0f 1f 84 00 00 	nopw   %cs:0x0(%rax,%rax,1)
    438c:	00 00 00 
    438f:	90                   	nop

0000000000004390 <_ZN5alloc5alloc8box_free17h0b47e71aa4e0342eE.llvm.9782508449811801216>:
    4390:	48 89 f0             	mov    %rsi,%rax
    4393:	48 8b 76 08          	mov    0x8(%rsi),%rsi
    4397:	48 85 f6             	test   %rsi,%rsi
    439a:	74 0a                	je     43a6 <_ZN5alloc5alloc8box_free17h0b47e71aa4e0342eE.llvm.9782508449811801216+0x16>
    439c:	48 8b 50 10          	mov    0x10(%rax),%rdx
    43a0:	ff 25 d2 f8 02 00    	jmpq   *0x2f8d2(%rip)        # 33c78 <_GLOBAL_OFFSET_TABLE_+0x318>
    43a6:	c3                   	retq   
    43a7:	66 0f 1f 84 00 00 00 	nopw   0x0(%rax,%rax,1)
    43ae:	00 00 

00000000000043b0 <_ZN5alloc5alloc8box_free17h5c17c42c15b35db8E.llvm.9782508449811801216>:
    43b0:	be 18 00 00 00       	mov    $0x18,%esi
    43b5:	ba 08 00 00 00       	mov    $0x8,%edx
    43ba:	ff 25 b8 f8 02 00    	jmpq   *0x2f8b8(%rip)        # 33c78 <_GLOBAL_OFFSET_TABLE_+0x318>

00000000000043c0 <_ZN86_$LT$core..result..Result$LT$$LP$$RP$$C$E$GT$$u20$as$u20$std..process..Termination$GT$6report17h2e8dec902d26567dE>:
    43c0:	41 56                	push   %r14
    43c2:	53                   	push   %rbx
    43c3:	48 83 ec 58          	sub    $0x58,%rsp
    43c7:	31 c0                	xor    %eax,%eax
    43c9:	80 3f 03             	cmpb   $0x3,(%rdi)
    43cc:	0f 84 9f 00 00 00    	je     4471 <_ZN86_$LT$core..result..Result$LT$$LP$$RP$$C$E$GT$$u20$as$u20$std..process..Termination$GT$6report17h2e8dec902d26567dE+0xb1>
    43d2:	0f 10 07             	movups (%rdi),%xmm0
    43d5:	0f 29 04 24          	movaps %xmm0,(%rsp)
    43d9:	48 89 e0             	mov    %rsp,%rax
    43dc:	48 89 44 24 18       	mov    %rax,0x18(%rsp)
    43e1:	48 8d 05 b8 29 00 00 	lea    0x29b8(%rip),%rax        # 6da0 <_ZN58_$LT$std..io..error..Error$u20$as$u20$core..fmt..Debug$GT$3fmt17hfaf119064059a45bE>
    43e8:	48 89 44 24 20       	mov    %rax,0x20(%rsp)
    43ed:	48 8d 05 d4 db 02 00 	lea    0x2dbd4(%rip),%rax        # 31fc8 <anon.2a2a8279f82dd18d5d6ec8aaf5193350.2.llvm.9782508449811801216>
    43f4:	48 89 44 24 28       	mov    %rax,0x28(%rsp)
    43f9:	48 c7 44 24 30 02 00 	movq   $0x2,0x30(%rsp)
    4400:	00 00 
    4402:	48 c7 44 24 38 00 00 	movq   $0x0,0x38(%rsp)
    4409:	00 00 
    440b:	48 8d 44 24 18       	lea    0x18(%rsp),%rax
    4410:	48 89 44 24 48       	mov    %rax,0x48(%rsp)
    4415:	48 c7 44 24 50 01 00 	movq   $0x1,0x50(%rsp)
    441c:	00 00 
    441e:	48 8d 7c 24 28       	lea    0x28(%rsp),%rdi
    4423:	ff 15 ff fa 02 00    	callq  *0x2faff(%rip)        # 33f28 <_GLOBAL_OFFSET_TABLE_+0x5c8>
    4429:	80 3c 24 02          	cmpb   $0x2,(%rsp)
    442d:	72 3d                	jb     446c <_ZN86_$LT$core..result..Result$LT$$LP$$RP$$C$E$GT$$u20$as$u20$std..process..Termination$GT$6report17h2e8dec902d26567dE+0xac>
    442f:	48 8b 5c 24 08       	mov    0x8(%rsp),%rbx
    4434:	48 8b 3b             	mov    (%rbx),%rdi
    4437:	48 8b 43 08          	mov    0x8(%rbx),%rax
    443b:	ff 10                	callq  *(%rax)
    443d:	48 8b 43 08          	mov    0x8(%rbx),%rax
    4441:	48 8b 70 08          	mov    0x8(%rax),%rsi
    4445:	48 85 f6             	test   %rsi,%rsi
    4448:	74 0d                	je     4457 <_ZN86_$LT$core..result..Result$LT$$LP$$RP$$C$E$GT$$u20$as$u20$std..process..Termination$GT$6report17h2e8dec902d26567dE+0x97>
    444a:	48 8b 3b             	mov    (%rbx),%rdi
    444d:	48 8b 50 10          	mov    0x10(%rax),%rdx
    4451:	ff 15 21 f8 02 00    	callq  *0x2f821(%rip)        # 33c78 <_GLOBAL_OFFSET_TABLE_+0x318>
    4457:	48 8b 7c 24 08       	mov    0x8(%rsp),%rdi
    445c:	be 18 00 00 00       	mov    $0x18,%esi
    4461:	ba 08 00 00 00       	mov    $0x8,%edx
    4466:	ff 15 0c f8 02 00    	callq  *0x2f80c(%rip)        # 33c78 <_GLOBAL_OFFSET_TABLE_+0x318>
    446c:	b8 01 00 00 00       	mov    $0x1,%eax
    4471:	48 83 c4 58          	add    $0x58,%rsp
    4475:	5b                   	pop    %rbx
    4476:	41 5e                	pop    %r14
    4478:	c3                   	retq   
    4479:	49 89 c6             	mov    %rax,%r14
    447c:	48 8b 3b             	mov    (%rbx),%rdi
    447f:	48 8b 73 08          	mov    0x8(%rbx),%rsi
    4483:	e8 08 ff ff ff       	callq  4390 <_ZN5alloc5alloc8box_free17h0b47e71aa4e0342eE.llvm.9782508449811801216>
    4488:	48 8b 7c 24 08       	mov    0x8(%rsp),%rdi
    448d:	e8 1e ff ff ff       	callq  43b0 <_ZN5alloc5alloc8box_free17h5c17c42c15b35db8E.llvm.9782508449811801216>
    4492:	4c 89 f7             	mov    %r14,%rdi
    4495:	e8 16 fd ff ff       	callq  41b0 <_Unwind_Resume@plt>
    449a:	0f 0b                	ud2    
    449c:	49 89 c6             	mov    %rax,%r14
    449f:	48 89 e7             	mov    %rsp,%rdi
    44a2:	e8 69 fe ff ff       	callq  4310 <_ZN4core3ptr18real_drop_in_place17h31442ed16cd6c539E.llvm.9782508449811801216>
    44a7:	4c 89 f7             	mov    %r14,%rdi
    44aa:	e8 01 fd ff ff       	callq  41b0 <_Unwind_Resume@plt>
    44af:	0f 0b                	ud2    
    44b1:	66 2e 0f 1f 84 00 00 	nopw   %cs:0x0(%rax,%rax,1)
    44b8:	00 00 00 
    44bb:	0f 1f 44 00 00       	nopl   0x0(%rax,%rax,1)

00000000000044c0 <_ZN11concurrency4main17h5e8f103acfa6f2f7E>:
    44c0:	48 89 f8             	mov    %rdi,%rax
    44c3:	c6 07 03             	movb   $0x3,(%rdi)
    44c6:	c3                   	retq   
    44c7:	66 0f 1f 84 00 00 00 	nopw   0x0(%rax,%rax,1)
    44ce:	00 00 

00000000000044d0 <main>:
    44d0:	50                   	push   %rax
    44d1:	48 89 f1             	mov    %rsi,%rcx
    44d4:	48 63 d7             	movslq %edi,%rdx
    44d7:	48 8d 05 e2 ff ff ff 	lea    -0x1e(%rip),%rax        # 44c0 <_ZN11concurrency4main17h5e8f103acfa6f2f7E>
    44de:	48 89 04 24          	mov    %rax,(%rsp)
    44e2:	48 8d 35 af da 02 00 	lea    0x2daaf(%rip),%rsi        # 31f98 <anon.a1dc34e49cc00fdd0a3851e638e4fe8a.0.llvm.7573772513158070236>
    44e9:	48 89 e7             	mov    %rsp,%rdi
    44ec:	ff 15 46 f9 02 00    	callq  *0x2f946(%rip)        # 33e38 <_GLOBAL_OFFSET_TABLE_+0x4d8>
    44f2:	59                   	pop    %rcx
    44f3:	c3                   	retq   
    44f4:	66 2e 0f 1f 84 00 00 	nopw   %cs:0x0(%rax,%rax,1)
    44fb:	00 00 00 
    44fe:	66 90                	xchg   %ax,%ax

0000000000004500 <__rust_alloc>:
    4500:	e9 4b 6d 00 00       	jmpq   b250 <__rdl_alloc>
    4505:	66 2e 0f 1f 84 00 00 	nopw   %cs:0x0(%rax,%rax,1)
    450c:	00 00 00 
    450f:	90                   	nop

0000000000004510 <__rust_dealloc>:
    4510:	e9 8b 6d 00 00       	jmpq   b2a0 <__rdl_dealloc>
    4515:	66 2e 0f 1f 84 00 00 	nopw   %cs:0x0(%rax,%rax,1)
    451c:	00 00 00 
    451f:	90                   	nop

0000000000004520 <__rust_realloc>:
    4520:	e9 8b 6d 00 00       	jmpq   b2b0 <__rdl_realloc>
    4525:	66 2e 0f 1f 84 00 00 	nopw   %cs:0x0(%rax,%rax,1)
    452c:	00 00 00 
    452f:	90                   	nop

0000000000004530 <_ZN109_$LT$alloc..vec..Vec$LT$T$GT$$u20$as$u20$alloc..vec..SpecExtend$LT$$RF$T$C$core..slice..Iter$LT$T$GT$$GT$$GT$11spec_extend17hf251a0cfb7cf13efE>:
    4530:	41 57                	push   %r15
    4532:	41 56                	push   %r14
    4534:	41 54                	push   %r12
    4536:	53                   	push   %rbx
    4537:	50                   	push   %rax
    4538:	49 89 d7             	mov    %rdx,%r15
    453b:	49 89 f6             	mov    %rsi,%r14
    453e:	49 89 fc             	mov    %rdi,%r12
    4541:	49 29 f7             	sub    %rsi,%r15
    4544:	48 8b 77 08          	mov    0x8(%rdi),%rsi
    4548:	48 8b 5f 10          	mov    0x10(%rdi),%rbx
    454c:	48 89 f0             	mov    %rsi,%rax
    454f:	48 29 d8             	sub    %rbx,%rax
    4552:	4c 39 f8             	cmp    %r15,%rax
    4555:	73 29                	jae    4580 <_ZN109_$LT$alloc..vec..Vec$LT$T$GT$$u20$as$u20$alloc..vec..SpecExtend$LT$$RF$T$C$core..slice..Iter$LT$T$GT$$GT$$GT$11spec_extend17hf251a0cfb7cf13efE+0x50>
    4557:	4c 01 fb             	add    %r15,%rbx
    455a:	72 71                	jb     45cd <_ZN109_$LT$alloc..vec..Vec$LT$T$GT$$u20$as$u20$alloc..vec..SpecExtend$LT$$RF$T$C$core..slice..Iter$LT$T$GT$$GT$$GT$11spec_extend17hf251a0cfb7cf13efE+0x9d>
    455c:	48 8d 04 36          	lea    (%rsi,%rsi,1),%rax
    4560:	48 39 d8             	cmp    %rbx,%rax
    4563:	48 0f 47 d8          	cmova  %rax,%rbx
    4567:	48 85 f6             	test   %rsi,%rsi
    456a:	74 1a                	je     4586 <_ZN109_$LT$alloc..vec..Vec$LT$T$GT$$u20$as$u20$alloc..vec..SpecExtend$LT$$RF$T$C$core..slice..Iter$LT$T$GT$$GT$$GT$11spec_extend17hf251a0cfb7cf13efE+0x56>
    456c:	49 8b 3c 24          	mov    (%r12),%rdi
    4570:	ba 01 00 00 00       	mov    $0x1,%edx
    4575:	48 89 d9             	mov    %rbx,%rcx
    4578:	ff 15 2a fa 02 00    	callq  *0x2fa2a(%rip)        # 33fa8 <_GLOBAL_OFFSET_TABLE_+0x648>
    457e:	eb 14                	jmp    4594 <_ZN109_$LT$alloc..vec..Vec$LT$T$GT$$u20$as$u20$alloc..vec..SpecExtend$LT$$RF$T$C$core..slice..Iter$LT$T$GT$$GT$$GT$11spec_extend17hf251a0cfb7cf13efE+0x64>
    4580:	49 8b 3c 24          	mov    (%r12),%rdi
    4584:	eb 24                	jmp    45aa <_ZN109_$LT$alloc..vec..Vec$LT$T$GT$$u20$as$u20$alloc..vec..SpecExtend$LT$$RF$T$C$core..slice..Iter$LT$T$GT$$GT$$GT$11spec_extend17hf251a0cfb7cf13efE+0x7a>
    4586:	be 01 00 00 00       	mov    $0x1,%esi
    458b:	48 89 df             	mov    %rbx,%rdi
    458e:	ff 15 7c f6 02 00    	callq  *0x2f67c(%rip)        # 33c10 <_GLOBAL_OFFSET_TABLE_+0x2b0>
    4594:	48 89 c7             	mov    %rax,%rdi
    4597:	48 85 c0             	test   %rax,%rax
    459a:	74 39                	je     45d5 <_ZN109_$LT$alloc..vec..Vec$LT$T$GT$$u20$as$u20$alloc..vec..SpecExtend$LT$$RF$T$C$core..slice..Iter$LT$T$GT$$GT$$GT$11spec_extend17hf251a0cfb7cf13efE+0xa5>
    459c:	49 89 3c 24          	mov    %rdi,(%r12)
    45a0:	49 89 5c 24 08       	mov    %rbx,0x8(%r12)
    45a5:	49 8b 5c 24 10       	mov    0x10(%r12),%rbx
    45aa:	4a 8d 04 3b          	lea    (%rbx,%r15,1),%rax
    45ae:	49 89 44 24 10       	mov    %rax,0x10(%r12)
    45b3:	48 01 df             	add    %rbx,%rdi
    45b6:	4c 89 f6             	mov    %r14,%rsi
    45b9:	4c 89 fa             	mov    %r15,%rdx
    45bc:	48 83 c4 08          	add    $0x8,%rsp
    45c0:	5b                   	pop    %rbx
    45c1:	41 5c                	pop    %r12
    45c3:	41 5e                	pop    %r14
    45c5:	41 5f                	pop    %r15
    45c7:	ff 25 d3 f7 02 00    	jmpq   *0x2f7d3(%rip)        # 33da0 <memcpy@GLIBC_2.14>
    45cd:	ff 15 05 f5 02 00    	callq  *0x2f505(%rip)        # 33ad8 <_GLOBAL_OFFSET_TABLE_+0x178>
    45d3:	0f 0b                	ud2    
    45d5:	be 01 00 00 00       	mov    $0x1,%esi
    45da:	48 89 df             	mov    %rbx,%rdi
    45dd:	ff 15 cd f5 02 00    	callq  *0x2f5cd(%rip)        # 33bb0 <_GLOBAL_OFFSET_TABLE_+0x250>
    45e3:	0f 0b                	ud2    
    45e5:	66 2e 0f 1f 84 00 00 	nopw   %cs:0x0(%rax,%rax,1)
    45ec:	00 00 00 
    45ef:	90                   	nop

00000000000045f0 <_ZN36_$LT$T$u20$as$u20$core..any..Any$GT$7type_id17h14cb004da1387499E>:
    45f0:	48 b8 64 97 b0 70 d9 	movabs $0x111094d970b09764,%rax
    45f7:	94 10 11 
    45fa:	c3                   	retq   
    45fb:	0f 1f 44 00 00       	nopl   0x0(%rax,%rax,1)

0000000000004600 <_ZN36_$LT$T$u20$as$u20$core..any..Any$GT$7type_id17h6d03b16265fb750dE>:
    4600:	48 b8 0c 33 2c 8b d4 	movabs $0xd03203d48b2c330c,%rax
    4607:	03 32 d0 
    460a:	c3                   	retq   
    460b:	0f 1f 44 00 00       	nopl   0x0(%rax,%rax,1)

0000000000004610 <_ZN36_$LT$T$u20$as$u20$core..any..Any$GT$7type_id17h6db819c810714146E>:
    4610:	48 b8 ee 94 05 2e a6 	movabs $0xd45d96a62e0594ee,%rax
    4617:	96 5d d4 
    461a:	c3                   	retq   
    461b:	0f 1f 44 00 00       	nopl   0x0(%rax,%rax,1)

0000000000004620 <_ZN36_$LT$T$u20$as$u20$core..any..Any$GT$7type_id17hd77c416b6e4ac49bE>:
    4620:	48 b8 04 cb 36 d0 05 	movabs $0x68c68305d036cb04,%rax
    4627:	83 c6 68 
    462a:	c3                   	retq   
    462b:	0f 1f 44 00 00       	nopl   0x0(%rax,%rax,1)

0000000000004630 <_ZN42_$LT$$RF$T$u20$as$u20$core..fmt..Debug$GT$3fmt17h0450767ec32a366fE>:
    4630:	41 56                	push   %r14
    4632:	53                   	push   %rbx
    4633:	50                   	push   %rax
    4634:	48 89 f3             	mov    %rsi,%rbx
    4637:	4c 8b 37             	mov    (%rdi),%r14
    463a:	48 89 f7             	mov    %rsi,%rdi
    463d:	ff 15 dd f7 02 00    	callq  *0x2f7dd(%rip)        # 33e20 <_GLOBAL_OFFSET_TABLE_+0x4c0>
    4643:	84 c0                	test   %al,%al
    4645:	74 13                	je     465a <_ZN42_$LT$$RF$T$u20$as$u20$core..fmt..Debug$GT$3fmt17h0450767ec32a366fE+0x2a>
    4647:	4c 89 f7             	mov    %r14,%rdi
    464a:	48 89 de             	mov    %rbx,%rsi
    464d:	48 83 c4 08          	add    $0x8,%rsp
    4651:	5b                   	pop    %rbx
    4652:	41 5e                	pop    %r14
    4654:	ff 25 0e f4 02 00    	jmpq   *0x2f40e(%rip)        # 33a68 <_GLOBAL_OFFSET_TABLE_+0x108>
    465a:	48 89 df             	mov    %rbx,%rdi
    465d:	ff 15 fd f3 02 00    	callq  *0x2f3fd(%rip)        # 33a60 <_GLOBAL_OFFSET_TABLE_+0x100>
    4663:	4c 89 f7             	mov    %r14,%rdi
    4666:	48 89 de             	mov    %rbx,%rsi
    4669:	48 83 c4 08          	add    $0x8,%rsp
    466d:	84 c0                	test   %al,%al
    466f:	74 09                	je     467a <_ZN42_$LT$$RF$T$u20$as$u20$core..fmt..Debug$GT$3fmt17h0450767ec32a366fE+0x4a>
    4671:	5b                   	pop    %rbx
    4672:	41 5e                	pop    %r14
    4674:	ff 25 76 f8 02 00    	jmpq   *0x2f876(%rip)        # 33ef0 <_GLOBAL_OFFSET_TABLE_+0x590>
    467a:	5b                   	pop    %rbx
    467b:	41 5e                	pop    %r14
    467d:	ff 25 95 f8 02 00    	jmpq   *0x2f895(%rip)        # 33f18 <_GLOBAL_OFFSET_TABLE_+0x5b8>
    4683:	66 2e 0f 1f 84 00 00 	nopw   %cs:0x0(%rax,%rax,1)
    468a:	00 00 00 
    468d:	0f 1f 00             	nopl   (%rax)

0000000000004690 <_ZN42_$LT$$RF$T$u20$as$u20$core..fmt..Debug$GT$3fmt17h17c9c1114dc2d657E>:
    4690:	41 56                	push   %r14
    4692:	53                   	push   %rbx
    4693:	50                   	push   %rax
    4694:	48 89 f3             	mov    %rsi,%rbx
    4697:	4c 8b 37             	mov    (%rdi),%r14
    469a:	48 89 f7             	mov    %rsi,%rdi
    469d:	ff 15 7d f7 02 00    	callq  *0x2f77d(%rip)        # 33e20 <_GLOBAL_OFFSET_TABLE_+0x4c0>
    46a3:	84 c0                	test   %al,%al
    46a5:	74 13                	je     46ba <_ZN42_$LT$$RF$T$u20$as$u20$core..fmt..Debug$GT$3fmt17h17c9c1114dc2d657E+0x2a>
    46a7:	4c 89 f7             	mov    %r14,%rdi
    46aa:	48 89 de             	mov    %rbx,%rsi
    46ad:	48 83 c4 08          	add    $0x8,%rsp
    46b1:	5b                   	pop    %rbx
    46b2:	41 5e                	pop    %r14
    46b4:	ff 25 36 f7 02 00    	jmpq   *0x2f736(%rip)        # 33df0 <_GLOBAL_OFFSET_TABLE_+0x490>
    46ba:	48 89 df             	mov    %rbx,%rdi
    46bd:	ff 15 9d f3 02 00    	callq  *0x2f39d(%rip)        # 33a60 <_GLOBAL_OFFSET_TABLE_+0x100>
    46c3:	4c 89 f7             	mov    %r14,%rdi
    46c6:	48 89 de             	mov    %rbx,%rsi
    46c9:	48 83 c4 08          	add    $0x8,%rsp
    46cd:	84 c0                	test   %al,%al
    46cf:	74 09                	je     46da <_ZN42_$LT$$RF$T$u20$as$u20$core..fmt..Debug$GT$3fmt17h17c9c1114dc2d657E+0x4a>
    46d1:	5b                   	pop    %rbx
    46d2:	41 5e                	pop    %r14
    46d4:	ff 25 5e f4 02 00    	jmpq   *0x2f45e(%rip)        # 33b38 <_GLOBAL_OFFSET_TABLE_+0x1d8>
    46da:	5b                   	pop    %rbx
    46db:	41 5e                	pop    %r14
    46dd:	ff 25 4d f8 02 00    	jmpq   *0x2f84d(%rip)        # 33f30 <_GLOBAL_OFFSET_TABLE_+0x5d0>
    46e3:	66 2e 0f 1f 84 00 00 	nopw   %cs:0x0(%rax,%rax,1)
    46ea:	00 00 00 
    46ed:	0f 1f 00             	nopl   (%rax)

00000000000046f0 <_ZN42_$LT$$RF$T$u20$as$u20$core..fmt..Debug$GT$3fmt17h4a1a6ede2d243263E>:
    46f0:	41 56                	push   %r14
    46f2:	53                   	push   %rbx
    46f3:	50                   	push   %rax
    46f4:	48 89 f3             	mov    %rsi,%rbx
    46f7:	4c 8b 37             	mov    (%rdi),%r14
    46fa:	48 89 f7             	mov    %rsi,%rdi
    46fd:	ff 15 1d f7 02 00    	callq  *0x2f71d(%rip)        # 33e20 <_GLOBAL_OFFSET_TABLE_+0x4c0>
    4703:	84 c0                	test   %al,%al
    4705:	74 13                	je     471a <_ZN42_$LT$$RF$T$u20$as$u20$core..fmt..Debug$GT$3fmt17h4a1a6ede2d243263E+0x2a>
    4707:	4c 89 f7             	mov    %r14,%rdi
    470a:	48 89 de             	mov    %rbx,%rsi
    470d:	48 83 c4 08          	add    $0x8,%rsp
    4711:	5b                   	pop    %rbx
    4712:	41 5e                	pop    %r14
    4714:	ff 25 ae f4 02 00    	jmpq   *0x2f4ae(%rip)        # 33bc8 <_GLOBAL_OFFSET_TABLE_+0x268>
    471a:	48 89 df             	mov    %rbx,%rdi
    471d:	ff 15 3d f3 02 00    	callq  *0x2f33d(%rip)        # 33a60 <_GLOBAL_OFFSET_TABLE_+0x100>
    4723:	4c 89 f7             	mov    %r14,%rdi
    4726:	48 89 de             	mov    %rbx,%rsi
    4729:	48 83 c4 08          	add    $0x8,%rsp
    472d:	84 c0                	test   %al,%al
    472f:	74 09                	je     473a <_ZN42_$LT$$RF$T$u20$as$u20$core..fmt..Debug$GT$3fmt17h4a1a6ede2d243263E+0x4a>
    4731:	5b                   	pop    %rbx
    4732:	41 5e                	pop    %r14
    4734:	ff 25 36 f7 02 00    	jmpq   *0x2f736(%rip)        # 33e70 <_GLOBAL_OFFSET_TABLE_+0x510>
    473a:	5b                   	pop    %rbx
    473b:	41 5e                	pop    %r14
    473d:	ff 25 d5 f4 02 00    	jmpq   *0x2f4d5(%rip)        # 33c18 <_GLOBAL_OFFSET_TABLE_+0x2b8>
    4743:	66 2e 0f 1f 84 00 00 	nopw   %cs:0x0(%rax,%rax,1)
    474a:	00 00 00 
    474d:	0f 1f 00             	nopl   (%rax)

0000000000004750 <_ZN42_$LT$$RF$T$u20$as$u20$core..fmt..Debug$GT$3fmt17h59120599c63ab41aE>:
    4750:	48 8b 07             	mov    (%rdi),%rax
    4753:	48 8b 38             	mov    (%rax),%rdi
    4756:	48 8b 40 08          	mov    0x8(%rax),%rax
    475a:	48 8b 40 48          	mov    0x48(%rax),%rax
    475e:	ff e0                	jmpq   *%rax

0000000000004760 <_ZN42_$LT$$RF$T$u20$as$u20$core..fmt..Debug$GT$3fmt17hcc5522fe4ebe8811E>:
    4760:	48 8b 3f             	mov    (%rdi),%rdi
    4763:	ff 25 ff f7 02 00    	jmpq   *0x2f7ff(%rip)        # 33f68 <_GLOBAL_OFFSET_TABLE_+0x608>
    4769:	0f 1f 80 00 00 00 00 	nopl   0x0(%rax)

0000000000004770 <_ZN42_$LT$$RF$T$u20$as$u20$core..fmt..Debug$GT$3fmt17hf58059e0cf411ee7E>:
    4770:	55                   	push   %rbp
    4771:	41 57                	push   %r15
    4773:	41 56                	push   %r14
    4775:	41 55                	push   %r13
    4777:	41 54                	push   %r12
    4779:	53                   	push   %rbx
    477a:	48 83 ec 18          	sub    $0x18,%rsp
    477e:	48 8b 07             	mov    (%rdi),%rax
    4781:	48 8b 18             	mov    (%rax),%rbx
    4784:	4c 8b 68 10          	mov    0x10(%rax),%r13
    4788:	48 8d 7c 24 08       	lea    0x8(%rsp),%rdi
    478d:	ff 15 b5 f4 02 00    	callq  *0x2f4b5(%rip)        # 33c48 <_GLOBAL_OFFSET_TABLE_+0x2e8>
    4793:	4d 85 ed             	test   %r13,%r13
    4796:	74 31                	je     47c9 <_ZN42_$LT$$RF$T$u20$as$u20$core..fmt..Debug$GT$3fmt17hf58059e0cf411ee7E+0x59>
    4798:	4c 8d 35 e9 d8 02 00 	lea    0x2d8e9(%rip),%r14        # 32088 <anon.2a2a8279f82dd18d5d6ec8aaf5193350.2.llvm.9782508449811801216+0xc0>
    479f:	4c 8d 7c 24 08       	lea    0x8(%rsp),%r15
    47a4:	49 89 e4             	mov    %rsp,%r12
    47a7:	48 8d 2d f2 d0 01 00 	lea    0x1d0f2(%rip),%rbp        # 218a0 <_ZN4core3fmt8builders8DebugSet5entry17h3fe4069a40e20eeeE>
    47ae:	66 90                	xchg   %ax,%ax
    47b0:	48 89 1c 24          	mov    %rbx,(%rsp)
    47b4:	4c 89 ff             	mov    %r15,%rdi
    47b7:	4c 89 e6             	mov    %r12,%rsi
    47ba:	4c 89 f2             	mov    %r14,%rdx
    47bd:	ff d5                	callq  *%rbp
    47bf:	48 83 c3 01          	add    $0x1,%rbx
    47c3:	49 83 c5 ff          	add    $0xffffffffffffffff,%r13
    47c7:	75 e7                	jne    47b0 <_ZN42_$LT$$RF$T$u20$as$u20$core..fmt..Debug$GT$3fmt17hf58059e0cf411ee7E+0x40>
    47c9:	48 8d 7c 24 08       	lea    0x8(%rsp),%rdi
    47ce:	ff 15 2c f7 02 00    	callq  *0x2f72c(%rip)        # 33f00 <_GLOBAL_OFFSET_TABLE_+0x5a0>
    47d4:	48 83 c4 18          	add    $0x18,%rsp
    47d8:	5b                   	pop    %rbx
    47d9:	41 5c                	pop    %r12
    47db:	41 5d                	pop    %r13
    47dd:	41 5e                	pop    %r14
    47df:	41 5f                	pop    %r15
    47e1:	5d                   	pop    %rbp
    47e2:	c3                   	retq   
    47e3:	66 2e 0f 1f 84 00 00 	nopw   %cs:0x0(%rax,%rax,1)
    47ea:	00 00 00 
    47ed:	0f 1f 00             	nopl   (%rax)

00000000000047f0 <_ZN44_$LT$$RF$T$u20$as$u20$core..fmt..Display$GT$3fmt17h2f2ea64e3c207a20E>:
    47f0:	48 8b 3f             	mov    (%rdi),%rdi
    47f3:	ff 25 ef f5 02 00    	jmpq   *0x2f5ef(%rip)        # 33de8 <_GLOBAL_OFFSET_TABLE_+0x488>
    47f9:	0f 1f 80 00 00 00 00 	nopl   0x0(%rax)

0000000000004800 <_ZN44_$LT$$RF$T$u20$as$u20$core..fmt..Display$GT$3fmt17hce296db0c639805bE>:
    4800:	48 89 f2             	mov    %rsi,%rdx
    4803:	48 8b 07             	mov    (%rdi),%rax
    4806:	48 8b 77 08          	mov    0x8(%rdi),%rsi
    480a:	48 89 c7             	mov    %rax,%rdi
    480d:	ff 25 e5 f2 02 00    	jmpq   *0x2f2e5(%rip)        # 33af8 <_GLOBAL_OFFSET_TABLE_+0x198>
    4813:	66 2e 0f 1f 84 00 00 	nopw   %cs:0x0(%rax,%rax,1)
    481a:	00 00 00 
    481d:	0f 1f 00             	nopl   (%rax)

0000000000004820 <_ZN45_$LT$$RF$T$u20$as$u20$core..fmt..UpperHex$GT$3fmt17hb1aff0589cddb2dcE>:
    4820:	48 8b 3f             	mov    (%rdi),%rdi
    4823:	ff 25 47 f6 02 00    	jmpq   *0x2f647(%rip)        # 33e70 <_GLOBAL_OFFSET_TABLE_+0x510>
    4829:	0f 1f 80 00 00 00 00 	nopl   0x0(%rax)

0000000000004830 <_ZN4core3fmt3num50_$LT$impl$u20$core..fmt..Debug$u20$for$u20$i32$GT$3fmt17ha60fc7f34bb1be05E>:
    4830:	41 56                	push   %r14
    4832:	53                   	push   %rbx
    4833:	50                   	push   %rax
    4834:	48 89 f3             	mov    %rsi,%rbx
    4837:	49 89 fe             	mov    %rdi,%r14
    483a:	48 89 f7             	mov    %rsi,%rdi
    483d:	ff 15 dd f5 02 00    	callq  *0x2f5dd(%rip)        # 33e20 <_GLOBAL_OFFSET_TABLE_+0x4c0>
    4843:	84 c0                	test   %al,%al
    4845:	74 13                	je     485a <_ZN4core3fmt3num50_$LT$impl$u20$core..fmt..Debug$u20$for$u20$i32$GT$3fmt17ha60fc7f34bb1be05E+0x2a>
    4847:	4c 89 f7             	mov    %r14,%rdi
    484a:	48 89 de             	mov    %rbx,%rsi
    484d:	48 83 c4 08          	add    $0x8,%rsp
    4851:	5b                   	pop    %rbx
    4852:	41 5e                	pop    %r14
    4854:	ff 25 0e f2 02 00    	jmpq   *0x2f20e(%rip)        # 33a68 <_GLOBAL_OFFSET_TABLE_+0x108>
    485a:	48 89 df             	mov    %rbx,%rdi
    485d:	ff 15 fd f1 02 00    	callq  *0x2f1fd(%rip)        # 33a60 <_GLOBAL_OFFSET_TABLE_+0x100>
    4863:	4c 89 f7             	mov    %r14,%rdi
    4866:	48 89 de             	mov    %rbx,%rsi
    4869:	48 83 c4 08          	add    $0x8,%rsp
    486d:	84 c0                	test   %al,%al
    486f:	74 09                	je     487a <_ZN4core3fmt3num50_$LT$impl$u20$core..fmt..Debug$u20$for$u20$i32$GT$3fmt17ha60fc7f34bb1be05E+0x4a>
    4871:	5b                   	pop    %rbx
    4872:	41 5e                	pop    %r14
    4874:	ff 25 76 f6 02 00    	jmpq   *0x2f676(%rip)        # 33ef0 <_GLOBAL_OFFSET_TABLE_+0x590>
    487a:	5b                   	pop    %rbx
    487b:	41 5e                	pop    %r14
    487d:	ff 25 95 f6 02 00    	jmpq   *0x2f695(%rip)        # 33f18 <_GLOBAL_OFFSET_TABLE_+0x5b8>
    4883:	66 2e 0f 1f 84 00 00 	nopw   %cs:0x0(%rax,%rax,1)
    488a:	00 00 00 
    488d:	0f 1f 00             	nopl   (%rax)

0000000000004890 <_ZN4core3fmt5Write10write_char17h03e8e09565963996E>:
    4890:	53                   	push   %rbx
    4891:	48 83 ec 30          	sub    $0x30,%rsp
    4895:	48 89 fb             	mov    %rdi,%rbx
    4898:	c7 44 24 0c 00 00 00 	movl   $0x0,0xc(%rsp)
    489f:	00 
    48a0:	81 fe 80 00 00 00    	cmp    $0x80,%esi
    48a6:	73 0f                	jae    48b7 <_ZN4core3fmt5Write10write_char17h03e8e09565963996E+0x27>
    48a8:	40 88 74 24 0c       	mov    %sil,0xc(%rsp)
    48ad:	b9 01 00 00 00       	mov    $0x1,%ecx
    48b2:	e9 92 00 00 00       	jmpq   4949 <_ZN4core3fmt5Write10write_char17h03e8e09565963996E+0xb9>
    48b7:	89 f0                	mov    %esi,%eax
    48b9:	81 fe 00 08 00 00    	cmp    $0x800,%esi
    48bf:	73 1f                	jae    48e0 <_ZN4core3fmt5Write10write_char17h03e8e09565963996E+0x50>
    48c1:	c1 e8 06             	shr    $0x6,%eax
    48c4:	24 1f                	and    $0x1f,%al
    48c6:	0c c0                	or     $0xc0,%al
    48c8:	88 44 24 0c          	mov    %al,0xc(%rsp)
    48cc:	40 80 e6 3f          	and    $0x3f,%sil
    48d0:	40 80 ce 80          	or     $0x80,%sil
    48d4:	40 88 74 24 0d       	mov    %sil,0xd(%rsp)
    48d9:	b9 02 00 00 00       	mov    $0x2,%ecx
    48de:	eb 69                	jmp    4949 <_ZN4core3fmt5Write10write_char17h03e8e09565963996E+0xb9>
    48e0:	81 fe 00 00 01 00    	cmp    $0x10000,%esi
    48e6:	73 2c                	jae    4914 <_ZN4core3fmt5Write10write_char17h03e8e09565963996E+0x84>
    48e8:	c1 e8 0c             	shr    $0xc,%eax
    48eb:	24 0f                	and    $0xf,%al
    48ed:	0c e0                	or     $0xe0,%al
    48ef:	88 44 24 0c          	mov    %al,0xc(%rsp)
    48f3:	89 f0                	mov    %esi,%eax
    48f5:	c1 e8 06             	shr    $0x6,%eax
    48f8:	24 3f                	and    $0x3f,%al
    48fa:	0c 80                	or     $0x80,%al
    48fc:	88 44 24 0d          	mov    %al,0xd(%rsp)
    4900:	40 80 e6 3f          	and    $0x3f,%sil
    4904:	40 80 ce 80          	or     $0x80,%sil
    4908:	40 88 74 24 0e       	mov    %sil,0xe(%rsp)
    490d:	b9 03 00 00 00       	mov    $0x3,%ecx
    4912:	eb 35                	jmp    4949 <_ZN4core3fmt5Write10write_char17h03e8e09565963996E+0xb9>
    4914:	c1 e8 12             	shr    $0x12,%eax
    4917:	0c f0                	or     $0xf0,%al
    4919:	88 44 24 0c          	mov    %al,0xc(%rsp)
    491d:	89 f0                	mov    %esi,%eax
    491f:	c1 e8 0c             	shr    $0xc,%eax
    4922:	24 3f                	and    $0x3f,%al
    4924:	0c 80                	or     $0x80,%al
    4926:	88 44 24 0d          	mov    %al,0xd(%rsp)
    492a:	89 f0                	mov    %esi,%eax
    492c:	c1 e8 06             	shr    $0x6,%eax
    492f:	24 3f                	and    $0x3f,%al
    4931:	0c 80                	or     $0x80,%al
    4933:	88 44 24 0e          	mov    %al,0xe(%rsp)
    4937:	40 80 e6 3f          	and    $0x3f,%sil
    493b:	40 80 ce 80          	or     $0x80,%sil
    493f:	40 88 74 24 0f       	mov    %sil,0xf(%rsp)
    4944:	b9 04 00 00 00       	mov    $0x4,%ecx
    4949:	48 8b 33             	mov    (%rbx),%rsi
    494c:	48 8d 7c 24 20       	lea    0x20(%rsp),%rdi
    4951:	48 8d 54 24 0c       	lea    0xc(%rsp),%rdx
    4956:	e8 c5 31 00 00       	callq  7b20 <_ZN3std2io5Write9write_all17h7ce6f8863cd620beE>
    495b:	80 7c 24 20 03       	cmpb   $0x3,0x20(%rsp)
    4960:	75 04                	jne    4966 <_ZN4core3fmt5Write10write_char17h03e8e09565963996E+0xd6>
    4962:	31 c0                	xor    %eax,%eax
    4964:	eb 26                	jmp    498c <_ZN4core3fmt5Write10write_char17h03e8e09565963996E+0xfc>
    4966:	0f 10 44 24 20       	movups 0x20(%rsp),%xmm0
    496b:	0f 29 44 24 10       	movaps %xmm0,0x10(%rsp)
    4970:	80 7b 08 03          	cmpb   $0x3,0x8(%rbx)
    4974:	48 8d 5b 08          	lea    0x8(%rbx),%rbx
    4978:	74 08                	je     4982 <_ZN4core3fmt5Write10write_char17h03e8e09565963996E+0xf2>
    497a:	48 89 df             	mov    %rbx,%rdi
    497d:	e8 0e 07 00 00       	callq  5090 <_ZN4core3ptr18real_drop_in_place17h83a59a75cb801d04E>
    4982:	0f 28 44 24 10       	movaps 0x10(%rsp),%xmm0
    4987:	0f 11 03             	movups %xmm0,(%rbx)
    498a:	b0 01                	mov    $0x1,%al
    498c:	48 83 c4 30          	add    $0x30,%rsp
    4990:	5b                   	pop    %rbx
    4991:	c3                   	retq   
    4992:	0f 28 44 24 10       	movaps 0x10(%rsp),%xmm0
    4997:	0f 11 03             	movups %xmm0,(%rbx)
    499a:	48 89 c7             	mov    %rax,%rdi
    499d:	e8 0e f8 ff ff       	callq  41b0 <_Unwind_Resume@plt>
    49a2:	0f 0b                	ud2    
    49a4:	66 2e 0f 1f 84 00 00 	nopw   %cs:0x0(%rax,%rax,1)
    49ab:	00 00 00 
    49ae:	66 90                	xchg   %ax,%ax

00000000000049b0 <_ZN4core3fmt5Write10write_char17hdd275ba1452c8861E>:
    49b0:	53                   	push   %rbx
    49b1:	48 83 ec 30          	sub    $0x30,%rsp
    49b5:	48 89 fb             	mov    %rdi,%rbx
    49b8:	c7 44 24 0c 00 00 00 	movl   $0x0,0xc(%rsp)
    49bf:	00 
    49c0:	81 fe 80 00 00 00    	cmp    $0x80,%esi
    49c6:	73 0f                	jae    49d7 <_ZN4core3fmt5Write10write_char17hdd275ba1452c8861E+0x27>
    49c8:	40 88 74 24 0c       	mov    %sil,0xc(%rsp)
    49cd:	b9 01 00 00 00       	mov    $0x1,%ecx
    49d2:	e9 92 00 00 00       	jmpq   4a69 <_ZN4core3fmt5Write10write_char17hdd275ba1452c8861E+0xb9>
    49d7:	89 f0                	mov    %esi,%eax
    49d9:	81 fe 00 08 00 00    	cmp    $0x800,%esi
    49df:	73 1f                	jae    4a00 <_ZN4core3fmt5Write10write_char17hdd275ba1452c8861E+0x50>
    49e1:	c1 e8 06             	shr    $0x6,%eax
    49e4:	24 1f                	and    $0x1f,%al
    49e6:	0c c0                	or     $0xc0,%al
    49e8:	88 44 24 0c          	mov    %al,0xc(%rsp)
    49ec:	40 80 e6 3f          	and    $0x3f,%sil
    49f0:	40 80 ce 80          	or     $0x80,%sil
    49f4:	40 88 74 24 0d       	mov    %sil,0xd(%rsp)
    49f9:	b9 02 00 00 00       	mov    $0x2,%ecx
    49fe:	eb 69                	jmp    4a69 <_ZN4core3fmt5Write10write_char17hdd275ba1452c8861E+0xb9>
    4a00:	81 fe 00 00 01 00    	cmp    $0x10000,%esi
    4a06:	73 2c                	jae    4a34 <_ZN4core3fmt5Write10write_char17hdd275ba1452c8861E+0x84>
    4a08:	c1 e8 0c             	shr    $0xc,%eax
    4a0b:	24 0f                	and    $0xf,%al
    4a0d:	0c e0                	or     $0xe0,%al
    4a0f:	88 44 24 0c          	mov    %al,0xc(%rsp)
    4a13:	89 f0                	mov    %esi,%eax
    4a15:	c1 e8 06             	shr    $0x6,%eax
    4a18:	24 3f                	and    $0x3f,%al
    4a1a:	0c 80                	or     $0x80,%al
    4a1c:	88 44 24 0d          	mov    %al,0xd(%rsp)
    4a20:	40 80 e6 3f          	and    $0x3f,%sil
    4a24:	40 80 ce 80          	or     $0x80,%sil
    4a28:	40 88 74 24 0e       	mov    %sil,0xe(%rsp)
    4a2d:	b9 03 00 00 00       	mov    $0x3,%ecx
    4a32:	eb 35                	jmp    4a69 <_ZN4core3fmt5Write10write_char17hdd275ba1452c8861E+0xb9>
    4a34:	c1 e8 12             	shr    $0x12,%eax
    4a37:	0c f0                	or     $0xf0,%al
    4a39:	88 44 24 0c          	mov    %al,0xc(%rsp)
    4a3d:	89 f0                	mov    %esi,%eax
    4a3f:	c1 e8 0c             	shr    $0xc,%eax
    4a42:	24 3f                	and    $0x3f,%al
    4a44:	0c 80                	or     $0x80,%al
    4a46:	88 44 24 0d          	mov    %al,0xd(%rsp)
    4a4a:	89 f0                	mov    %esi,%eax
    4a4c:	c1 e8 06             	shr    $0x6,%eax
    4a4f:	24 3f                	and    $0x3f,%al
    4a51:	0c 80                	or     $0x80,%al
    4a53:	88 44 24 0e          	mov    %al,0xe(%rsp)
    4a57:	40 80 e6 3f          	and    $0x3f,%sil
    4a5b:	40 80 ce 80          	or     $0x80,%sil
    4a5f:	40 88 74 24 0f       	mov    %sil,0xf(%rsp)
    4a64:	b9 04 00 00 00       	mov    $0x4,%ecx
    4a69:	48 8b 33             	mov    (%rbx),%rsi
    4a6c:	48 8d 7c 24 20       	lea    0x20(%rsp),%rdi
    4a71:	48 8d 54 24 0c       	lea    0xc(%rsp),%rdx
    4a76:	e8 85 32 00 00       	callq  7d00 <_ZN3std2io5Write9write_all17hbc116c971292aadfE>
    4a7b:	80 7c 24 20 03       	cmpb   $0x3,0x20(%rsp)
    4a80:	75 04                	jne    4a86 <_ZN4core3fmt5Write10write_char17hdd275ba1452c8861E+0xd6>
    4a82:	31 c0                	xor    %eax,%eax
    4a84:	eb 26                	jmp    4aac <_ZN4core3fmt5Write10write_char17hdd275ba1452c8861E+0xfc>
    4a86:	0f 10 44 24 20       	movups 0x20(%rsp),%xmm0
    4a8b:	0f 29 44 24 10       	movaps %xmm0,0x10(%rsp)
    4a90:	80 7b 08 03          	cmpb   $0x3,0x8(%rbx)
    4a94:	48 8d 5b 08          	lea    0x8(%rbx),%rbx
    4a98:	74 08                	je     4aa2 <_ZN4core3fmt5Write10write_char17hdd275ba1452c8861E+0xf2>
    4a9a:	48 89 df             	mov    %rbx,%rdi
    4a9d:	e8 ee 05 00 00       	callq  5090 <_ZN4core3ptr18real_drop_in_place17h83a59a75cb801d04E>
    4aa2:	0f 28 44 24 10       	movaps 0x10(%rsp),%xmm0
    4aa7:	0f 11 03             	movups %xmm0,(%rbx)
    4aaa:	b0 01                	mov    $0x1,%al
    4aac:	48 83 c4 30          	add    $0x30,%rsp
    4ab0:	5b                   	pop    %rbx
    4ab1:	c3                   	retq   
    4ab2:	0f 28 44 24 10       	movaps 0x10(%rsp),%xmm0
    4ab7:	0f 11 03             	movups %xmm0,(%rbx)
    4aba:	48 89 c7             	mov    %rax,%rdi
    4abd:	e8 ee f6 ff ff       	callq  41b0 <_Unwind_Resume@plt>
    4ac2:	0f 0b                	ud2    
    4ac4:	66 2e 0f 1f 84 00 00 	nopw   %cs:0x0(%rax,%rax,1)
    4acb:	00 00 00 
    4ace:	66 90                	xchg   %ax,%ax

0000000000004ad0 <_ZN4core3fmt5Write9write_fmt17h2330e0ec314dff64E>:
    4ad0:	48 83 ec 48          	sub    $0x48,%rsp
    4ad4:	48 89 7c 24 08       	mov    %rdi,0x8(%rsp)
    4ad9:	0f 10 06             	movups (%rsi),%xmm0
    4adc:	0f 10 4e 10          	movups 0x10(%rsi),%xmm1
    4ae0:	0f 10 56 20          	movups 0x20(%rsi),%xmm2
    4ae4:	0f 29 54 24 30       	movaps %xmm2,0x30(%rsp)
    4ae9:	0f 29 4c 24 20       	movaps %xmm1,0x20(%rsp)
    4aee:	0f 29 44 24 10       	movaps %xmm0,0x10(%rsp)
    4af3:	48 8d 35 fe d4 02 00 	lea    0x2d4fe(%rip),%rsi        # 31ff8 <anon.2a2a8279f82dd18d5d6ec8aaf5193350.2.llvm.9782508449811801216+0x30>
    4afa:	48 8d 7c 24 08       	lea    0x8(%rsp),%rdi
    4aff:	48 8d 54 24 10       	lea    0x10(%rsp),%rdx
    4b04:	ff 15 26 f1 02 00    	callq  *0x2f126(%rip)        # 33c30 <_GLOBAL_OFFSET_TABLE_+0x2d0>
    4b0a:	48 83 c4 48          	add    $0x48,%rsp
    4b0e:	c3                   	retq   
    4b0f:	90                   	nop

0000000000004b10 <_ZN4core3fmt5Write9write_fmt17hd243383fa9e79c8dE>:
    4b10:	48 83 ec 48          	sub    $0x48,%rsp
    4b14:	48 89 7c 24 08       	mov    %rdi,0x8(%rsp)
    4b19:	0f 10 06             	movups (%rsi),%xmm0
    4b1c:	0f 10 4e 10          	movups 0x10(%rsi),%xmm1
    4b20:	0f 10 56 20          	movups 0x20(%rsi),%xmm2
    4b24:	0f 29 54 24 30       	movaps %xmm2,0x30(%rsp)
    4b29:	0f 29 4c 24 20       	movaps %xmm1,0x20(%rsp)
    4b2e:	0f 29 44 24 10       	movaps %xmm0,0x10(%rsp)
    4b33:	48 8d 35 1e d5 02 00 	lea    0x2d51e(%rip),%rsi        # 32058 <anon.2a2a8279f82dd18d5d6ec8aaf5193350.2.llvm.9782508449811801216+0x90>
    4b3a:	48 8d 7c 24 08       	lea    0x8(%rsp),%rdi
    4b3f:	48 8d 54 24 10       	lea    0x10(%rsp),%rdx
    4b44:	ff 15 e6 f0 02 00    	callq  *0x2f0e6(%rip)        # 33c30 <_GLOBAL_OFFSET_TABLE_+0x2d0>
    4b4a:	48 83 c4 48          	add    $0x48,%rsp
    4b4e:	c3                   	retq   
    4b4f:	90                   	nop

0000000000004b50 <_ZN4core3ops8function6FnOnce40call_once$u7b$$u7b$vtable.shim$u7d$$u7d$17h0fc8f6aa9e8f3f06E>:
    4b50:	41 56                	push   %r14
    4b52:	53                   	push   %rbx
    4b53:	50                   	push   %rax
    4b54:	48 8b 1f             	mov    (%rdi),%rbx
    4b57:	48 89 df             	mov    %rbx,%rdi
    4b5a:	ff 15 70 f4 02 00    	callq  *0x2f470(%rip)        # 33fd0 <pthread_mutex_lock@GLIBC_2.2.5>
    4b60:	4c 8b 73 28          	mov    0x28(%rbx),%r14
    4b64:	48 c7 43 28 01 00 00 	movq   $0x1,0x28(%rbx)
    4b6b:	00 
    4b6c:	48 89 df             	mov    %rbx,%rdi
    4b6f:	ff 15 8b f2 02 00    	callq  *0x2f28b(%rip)        # 33e00 <pthread_mutex_unlock@GLIBC_2.2.5>
    4b75:	49 8b 06             	mov    (%r14),%rax
    4b78:	f0 48 83 28 01       	lock subq $0x1,(%rax)
    4b7d:	75 08                	jne    4b87 <_ZN4core3ops8function6FnOnce40call_once$u7b$$u7b$vtable.shim$u7d$$u7d$17h0fc8f6aa9e8f3f06E+0x37>
    4b7f:	4c 89 f7             	mov    %r14,%rdi
    4b82:	e8 49 0c 00 00       	callq  57d0 <_ZN5alloc4sync12Arc$LT$T$GT$9drop_slow17ha0c32ee3838644daE>
    4b87:	be 08 00 00 00       	mov    $0x8,%esi
    4b8c:	ba 08 00 00 00       	mov    $0x8,%edx
    4b91:	4c 89 f7             	mov    %r14,%rdi
    4b94:	48 83 c4 08          	add    $0x8,%rsp
    4b98:	5b                   	pop    %rbx
    4b99:	41 5e                	pop    %r14
    4b9b:	ff 25 d7 f0 02 00    	jmpq   *0x2f0d7(%rip)        # 33c78 <_GLOBAL_OFFSET_TABLE_+0x318>
    4ba1:	66 2e 0f 1f 84 00 00 	nopw   %cs:0x0(%rax,%rax,1)
    4ba8:	00 00 00 
    4bab:	0f 1f 44 00 00       	nopl   0x0(%rax,%rax,1)

0000000000004bb0 <_ZN4core3ops8function6FnOnce40call_once$u7b$$u7b$vtable.shim$u7d$$u7d$17h420f5cf23fe95de1E>:
    4bb0:	55                   	push   %rbp
    4bb1:	53                   	push   %rbx
    4bb2:	48 83 ec 18          	sub    $0x18,%rsp
    4bb6:	48 89 f0             	mov    %rsi,%rax
    4bb9:	48 89 fb             	mov    %rdi,%rbx
    4bbc:	48 8b 4a 10          	mov    0x10(%rdx),%rcx
    4bc0:	48 89 4c 24 10       	mov    %rcx,0x10(%rsp)
    4bc5:	0f 10 02             	movups (%rdx),%xmm0
    4bc8:	0f 29 04 24          	movaps %xmm0,(%rsp)
    4bcc:	48 8b 0f             	mov    (%rdi),%rcx
    4bcf:	48 85 c9             	test   %rcx,%rcx
    4bd2:	48 0f 45 cf          	cmovne %rdi,%rcx
    4bd6:	8b 57 18             	mov    0x18(%rdi),%edx
    4bd9:	48 89 e6             	mov    %rsp,%rsi
    4bdc:	48 89 c7             	mov    %rax,%rdi
    4bdf:	e8 5c 55 00 00       	callq  a140 <_ZN3std10sys_common9backtrace15output_filename17h1deca9202edb9132E>
    4be4:	89 c5                	mov    %eax,%ebp
    4be6:	48 8b 3b             	mov    (%rbx),%rdi
    4be9:	48 85 ff             	test   %rdi,%rdi
    4bec:	74 14                	je     4c02 <_ZN4core3ops8function6FnOnce40call_once$u7b$$u7b$vtable.shim$u7d$$u7d$17h420f5cf23fe95de1E+0x52>
    4bee:	48 8b 73 08          	mov    0x8(%rbx),%rsi
    4bf2:	48 85 f6             	test   %rsi,%rsi
    4bf5:	74 0b                	je     4c02 <_ZN4core3ops8function6FnOnce40call_once$u7b$$u7b$vtable.shim$u7d$$u7d$17h420f5cf23fe95de1E+0x52>
    4bf7:	ba 01 00 00 00       	mov    $0x1,%edx
    4bfc:	ff 15 76 f0 02 00    	callq  *0x2f076(%rip)        # 33c78 <_GLOBAL_OFFSET_TABLE_+0x318>
    4c02:	89 e8                	mov    %ebp,%eax
    4c04:	48 83 c4 18          	add    $0x18,%rsp
    4c08:	5b                   	pop    %rbx
    4c09:	5d                   	pop    %rbp
    4c0a:	c3                   	retq   
    4c0b:	48 89 c5             	mov    %rax,%rbp
    4c0e:	48 89 df             	mov    %rbx,%rdi
    4c11:	e8 2a 04 00 00       	callq  5040 <_ZN4core3ptr18real_drop_in_place17h76f090399cb225b7E>
    4c16:	48 89 ef             	mov    %rbp,%rdi
    4c19:	e8 92 f5 ff ff       	callq  41b0 <_Unwind_Resume@plt>
    4c1e:	0f 0b                	ud2    

0000000000004c20 <_ZN4core3ops8function6FnOnce40call_once$u7b$$u7b$vtable.shim$u7d$$u7d$17h87fbe9e32a371525E>:
    4c20:	50                   	push   %rax
    4c21:	48 8b 07             	mov    (%rdi),%rax
    4c24:	48 89 04 24          	mov    %rax,(%rsp)
    4c28:	48 89 e7             	mov    %rsp,%rdi
    4c2b:	e8 20 44 00 00       	callq  9050 <_ZN3std4sync4once4Once9call_once28_$u7b$$u7b$closure$u7d$$u7d$17h6a0aac1fb94934cdE>
    4c30:	58                   	pop    %rax
    4c31:	c3                   	retq   
    4c32:	66 2e 0f 1f 84 00 00 	nopw   %cs:0x0(%rax,%rax,1)
    4c39:	00 00 00 
    4c3c:	0f 1f 40 00          	nopl   0x0(%rax)

0000000000004c40 <_ZN4core3ops8function6FnOnce40call_once$u7b$$u7b$vtable.shim$u7d$$u7d$17h8c0d619a46ac0288E>:
    4c40:	e9 bb 4e 00 00       	jmpq   9b00 <_ZN3std10sys_common9backtrace10_print_fmt28_$u7b$$u7b$closure$u7d$$u7d$28_$u7b$$u7b$closure$u7d$$u7d$17h594c8f49a7868836E>
    4c45:	66 2e 0f 1f 84 00 00 	nopw   %cs:0x0(%rax,%rax,1)
    4c4c:	00 00 00 
    4c4f:	90                   	nop

0000000000004c50 <_ZN4core3ops8function6FnOnce40call_once$u7b$$u7b$vtable.shim$u7d$$u7d$17he455152a8dd4e273E>:
    4c50:	e9 bb 53 00 00       	jmpq   a010 <_ZN3std10sys_common9backtrace10_print_fmt28_$u7b$$u7b$closure$u7d$$u7d$17hedbe7bfac06ef4f2E>
    4c55:	66 2e 0f 1f 84 00 00 	nopw   %cs:0x0(%rax,%rax,1)
    4c5c:	00 00 00 
    4c5f:	90                   	nop

0000000000004c60 <_ZN4core3ptr18real_drop_in_place17h019f73134ac34606E>:
    4c60:	c3                   	retq   
    4c61:	66 2e 0f 1f 84 00 00 	nopw   %cs:0x0(%rax,%rax,1)
    4c68:	00 00 00 
    4c6b:	0f 1f 44 00 00       	nopl   0x0(%rax,%rax,1)

0000000000004c70 <_ZN4core3ptr18real_drop_in_place17h02207206f643a2adE>:
    4c70:	48 8b 07             	mov    (%rdi),%rax
    4c73:	48 85 c0             	test   %rax,%rax
    4c76:	74 1a                	je     4c92 <_ZN4core3ptr18real_drop_in_place17h02207206f643a2adE+0x22>
    4c78:	c6 00 00             	movb   $0x0,(%rax)
    4c7b:	48 8b 77 08          	mov    0x8(%rdi),%rsi
    4c7f:	48 85 f6             	test   %rsi,%rsi
    4c82:	74 0e                	je     4c92 <_ZN4core3ptr18real_drop_in_place17h02207206f643a2adE+0x22>
    4c84:	48 8b 3f             	mov    (%rdi),%rdi
    4c87:	ba 01 00 00 00       	mov    $0x1,%edx
    4c8c:	ff 25 e6 ef 02 00    	jmpq   *0x2efe6(%rip)        # 33c78 <_GLOBAL_OFFSET_TABLE_+0x318>
    4c92:	c3                   	retq   
    4c93:	66 2e 0f 1f 84 00 00 	nopw   %cs:0x0(%rax,%rax,1)
    4c9a:	00 00 00 
    4c9d:	0f 1f 00             	nopl   (%rax)

0000000000004ca0 <_ZN4core3ptr18real_drop_in_place17h0459fc0540f75304E>:
    4ca0:	48 8b 77 08          	mov    0x8(%rdi),%rsi
    4ca4:	48 85 f6             	test   %rsi,%rsi
    4ca7:	74 0e                	je     4cb7 <_ZN4core3ptr18real_drop_in_place17h0459fc0540f75304E+0x17>
    4ca9:	48 8b 3f             	mov    (%rdi),%rdi
    4cac:	ba 01 00 00 00       	mov    $0x1,%edx
    4cb1:	ff 25 c1 ef 02 00    	jmpq   *0x2efc1(%rip)        # 33c78 <_GLOBAL_OFFSET_TABLE_+0x318>
    4cb7:	c3                   	retq   
    4cb8:	0f 1f 84 00 00 00 00 	nopl   0x0(%rax,%rax,1)
    4cbf:	00 

0000000000004cc0 <_ZN4core3ptr18real_drop_in_place17h08d20f435ba74c03E>:
    4cc0:	c3                   	retq   
    4cc1:	66 2e 0f 1f 84 00 00 	nopw   %cs:0x0(%rax,%rax,1)
    4cc8:	00 00 00 
    4ccb:	0f 1f 44 00 00       	nopl   0x0(%rax,%rax,1)

0000000000004cd0 <_ZN4core3ptr18real_drop_in_place17h09f7afea6ab1a423E>:
    4cd0:	c3                   	retq   
    4cd1:	66 2e 0f 1f 84 00 00 	nopw   %cs:0x0(%rax,%rax,1)
    4cd8:	00 00 00 
    4cdb:	0f 1f 44 00 00       	nopl   0x0(%rax,%rax,1)

0000000000004ce0 <_ZN4core3ptr18real_drop_in_place17h17aeea7d36ebe06eE>:
    4ce0:	53                   	push   %rbx
    4ce1:	48 89 fb             	mov    %rdi,%rbx
    4ce4:	48 8b 3f             	mov    (%rdi),%rdi
    4ce7:	ff 15 e3 f1 02 00    	callq  *0x2f1e3(%rip)        # 33ed0 <pthread_cond_destroy@GLIBC_2.3.2>
    4ced:	48 8b 3b             	mov    (%rbx),%rdi
    4cf0:	be 30 00 00 00       	mov    $0x30,%esi
    4cf5:	ba 08 00 00 00       	mov    $0x8,%edx
    4cfa:	5b                   	pop    %rbx
    4cfb:	ff 25 77 ef 02 00    	jmpq   *0x2ef77(%rip)        # 33c78 <_GLOBAL_OFFSET_TABLE_+0x318>
    4d01:	66 2e 0f 1f 84 00 00 	nopw   %cs:0x0(%rax,%rax,1)
    4d08:	00 00 00 
    4d0b:	0f 1f 44 00 00       	nopl   0x0(%rax,%rax,1)

0000000000004d10 <_ZN4core3ptr18real_drop_in_place17h212e4d1307444050E>:
    4d10:	53                   	push   %rbx
    4d11:	48 89 fb             	mov    %rdi,%rbx
    4d14:	80 7f 08 00          	cmpb   $0x0,0x8(%rdi)
    4d18:	75 42                	jne    4d5c <_ZN4core3ptr18real_drop_in_place17h212e4d1307444050E+0x4c>
    4d1a:	66 66 66 64 48 8b 04 	data16 data16 data16 mov %fs:0x0,%rax
    4d21:	25 00 00 00 00 
    4d26:	48 89 c1             	mov    %rax,%rcx
    4d29:	48 83 b8 e8 ff ff ff 	cmpq   $0x1,-0x18(%rax)
    4d30:	01 
    4d31:	75 13                	jne    4d46 <_ZN4core3ptr18real_drop_in_place17h212e4d1307444050E+0x36>
    4d33:	48 83 b8 f0 ff ff ff 	cmpq   $0x0,-0x10(%rax)
    4d3a:	00 
    4d3b:	74 1f                	je     4d5c <_ZN4core3ptr18real_drop_in_place17h212e4d1307444050E+0x4c>
    4d3d:	48 8b 03             	mov    (%rbx),%rax
    4d40:	c6 40 08 01          	movb   $0x1,0x8(%rax)
    4d44:	eb 16                	jmp    4d5c <_ZN4core3ptr18real_drop_in_place17h212e4d1307444050E+0x4c>
    4d46:	48 c7 80 e8 ff ff ff 	movq   $0x1,-0x18(%rax)
    4d4d:	01 00 00 00 
    4d51:	48 c7 80 f0 ff ff ff 	movq   $0x0,-0x10(%rax)
    4d58:	00 00 00 00 
    4d5c:	48 8b 03             	mov    (%rbx),%rax
    4d5f:	48 8b 38             	mov    (%rax),%rdi
    4d62:	5b                   	pop    %rbx
    4d63:	ff 25 97 f0 02 00    	jmpq   *0x2f097(%rip)        # 33e00 <pthread_mutex_unlock@GLIBC_2.2.5>
    4d69:	0f 1f 80 00 00 00 00 	nopl   0x0(%rax)

0000000000004d70 <_ZN4core3ptr18real_drop_in_place17h241cd586f82ab093E>:
    4d70:	48 83 3f 00          	cmpq   $0x0,(%rdi)
    4d74:	74 18                	je     4d8e <_ZN4core3ptr18real_drop_in_place17h241cd586f82ab093E+0x1e>
    4d76:	48 8b 77 10          	mov    0x10(%rdi),%rsi
    4d7a:	48 85 f6             	test   %rsi,%rsi
    4d7d:	74 0f                	je     4d8e <_ZN4core3ptr18real_drop_in_place17h241cd586f82ab093E+0x1e>
    4d7f:	48 8b 7f 08          	mov    0x8(%rdi),%rdi
    4d83:	ba 01 00 00 00       	mov    $0x1,%edx
    4d88:	ff 25 ea ee 02 00    	jmpq   *0x2eeea(%rip)        # 33c78 <_GLOBAL_OFFSET_TABLE_+0x318>
    4d8e:	c3                   	retq   
    4d8f:	90                   	nop

0000000000004d90 <_ZN4core3ptr18real_drop_in_place17h28912cddb22d9c82E>:
    4d90:	48 8b 77 10          	mov    0x10(%rdi),%rsi
    4d94:	48 85 f6             	test   %rsi,%rsi
    4d97:	74 0f                	je     4da8 <_ZN4core3ptr18real_drop_in_place17h28912cddb22d9c82E+0x18>
    4d99:	48 8b 7f 08          	mov    0x8(%rdi),%rdi
    4d9d:	ba 01 00 00 00       	mov    $0x1,%edx
    4da2:	ff 25 d0 ee 02 00    	jmpq   *0x2eed0(%rip)        # 33c78 <_GLOBAL_OFFSET_TABLE_+0x318>
    4da8:	c3                   	retq   
    4da9:	0f 1f 80 00 00 00 00 	nopl   0x0(%rax)

0000000000004db0 <_ZN4core3ptr18real_drop_in_place17h2916d408eb15510bE>:
    4db0:	48 8b 07             	mov    (%rdi),%rax
    4db3:	48 85 c0             	test   %rax,%rax
    4db6:	74 0c                	je     4dc4 <_ZN4core3ptr18real_drop_in_place17h2916d408eb15510bE+0x14>
    4db8:	f0 48 83 28 01       	lock subq $0x1,(%rax)
    4dbd:	75 05                	jne    4dc4 <_ZN4core3ptr18real_drop_in_place17h2916d408eb15510bE+0x14>
    4dbf:	e9 cc 09 00 00       	jmpq   5790 <_ZN5alloc4sync12Arc$LT$T$GT$9drop_slow17h0c5b5e5b773186f6E>
    4dc4:	c3                   	retq   
    4dc5:	66 2e 0f 1f 84 00 00 	nopw   %cs:0x0(%rax,%rax,1)
    4dcc:	00 00 00 
    4dcf:	90                   	nop

0000000000004dd0 <_ZN4core3ptr18real_drop_in_place17h34a07279ddef2878E>:
    4dd0:	53                   	push   %rbx
    4dd1:	48 89 fb             	mov    %rdi,%rbx
    4dd4:	80 7f 08 00          	cmpb   $0x0,0x8(%rdi)
    4dd8:	75 42                	jne    4e1c <_ZN4core3ptr18real_drop_in_place17h34a07279ddef2878E+0x4c>
    4dda:	66 66 66 64 48 8b 04 	data16 data16 data16 mov %fs:0x0,%rax
    4de1:	25 00 00 00 00 
    4de6:	48 89 c1             	mov    %rax,%rcx
    4de9:	48 83 b8 e8 ff ff ff 	cmpq   $0x1,-0x18(%rax)
    4df0:	01 
    4df1:	75 13                	jne    4e06 <_ZN4core3ptr18real_drop_in_place17h34a07279ddef2878E+0x36>
    4df3:	48 83 b8 f0 ff ff ff 	cmpq   $0x0,-0x10(%rax)
    4dfa:	00 
    4dfb:	74 1f                	je     4e1c <_ZN4core3ptr18real_drop_in_place17h34a07279ddef2878E+0x4c>
    4dfd:	48 8b 03             	mov    (%rbx),%rax
    4e00:	c6 40 08 01          	movb   $0x1,0x8(%rax)
    4e04:	eb 16                	jmp    4e1c <_ZN4core3ptr18real_drop_in_place17h34a07279ddef2878E+0x4c>
    4e06:	48 c7 80 e8 ff ff ff 	movq   $0x1,-0x18(%rax)
    4e0d:	01 00 00 00 
    4e11:	48 c7 80 f0 ff ff ff 	movq   $0x0,-0x10(%rax)
    4e18:	00 00 00 00 
    4e1c:	48 8b 03             	mov    (%rbx),%rax
    4e1f:	48 8b 38             	mov    (%rax),%rdi
    4e22:	5b                   	pop    %rbx
    4e23:	ff 25 d7 ef 02 00    	jmpq   *0x2efd7(%rip)        # 33e00 <pthread_mutex_unlock@GLIBC_2.2.5>
    4e29:	0f 1f 80 00 00 00 00 	nopl   0x0(%rax)

0000000000004e30 <_ZN4core3ptr18real_drop_in_place17h3c2720248ed3d593E>:
    4e30:	48 8b 07             	mov    (%rdi),%rax
    4e33:	c6 00 00             	movb   $0x0,(%rax)
    4e36:	48 8b 77 08          	mov    0x8(%rdi),%rsi
    4e3a:	48 85 f6             	test   %rsi,%rsi
    4e3d:	74 0e                	je     4e4d <_ZN4core3ptr18real_drop_in_place17h3c2720248ed3d593E+0x1d>
    4e3f:	48 8b 3f             	mov    (%rdi),%rdi
    4e42:	ba 01 00 00 00       	mov    $0x1,%edx
    4e47:	ff 25 2b ee 02 00    	jmpq   *0x2ee2b(%rip)        # 33c78 <_GLOBAL_OFFSET_TABLE_+0x318>
    4e4d:	c3                   	retq   
    4e4e:	66 90                	xchg   %ax,%ax

0000000000004e50 <_ZN4core3ptr18real_drop_in_place17h3e3abafb8f3f6099E>:
    4e50:	80 7f 08 03          	cmpb   $0x3,0x8(%rdi)
    4e54:	75 01                	jne    4e57 <_ZN4core3ptr18real_drop_in_place17h3e3abafb8f3f6099E+0x7>
    4e56:	c3                   	retq   
    4e57:	48 83 c7 08          	add    $0x8,%rdi
    4e5b:	e9 30 02 00 00       	jmpq   5090 <_ZN4core3ptr18real_drop_in_place17h83a59a75cb801d04E>

0000000000004e60 <_ZN4core3ptr18real_drop_in_place17h3f616bc87d1a05c1E>:
    4e60:	c3                   	retq   
    4e61:	66 2e 0f 1f 84 00 00 	nopw   %cs:0x0(%rax,%rax,1)
    4e68:	00 00 00 
    4e6b:	0f 1f 44 00 00       	nopl   0x0(%rax,%rax,1)

0000000000004e70 <_ZN4core3ptr18real_drop_in_place17h433be3f01f619e54E>:
    4e70:	c3                   	retq   
    4e71:	66 2e 0f 1f 84 00 00 	nopw   %cs:0x0(%rax,%rax,1)
    4e78:	00 00 00 
    4e7b:	0f 1f 44 00 00       	nopl   0x0(%rax,%rax,1)

0000000000004e80 <_ZN4core3ptr18real_drop_in_place17h46791966f93f08a2E>:
    4e80:	c3                   	retq   
    4e81:	66 2e 0f 1f 84 00 00 	nopw   %cs:0x0(%rax,%rax,1)
    4e88:	00 00 00 
    4e8b:	0f 1f 44 00 00       	nopl   0x0(%rax,%rax,1)

0000000000004e90 <_ZN4core3ptr18real_drop_in_place17h494a813dd5da0167E>:
    4e90:	48 8b 47 18          	mov    0x18(%rdi),%rax
    4e94:	f0 48 83 28 01       	lock subq $0x1,(%rax)
    4e99:	75 09                	jne    4ea4 <_ZN4core3ptr18real_drop_in_place17h494a813dd5da0167E+0x14>
    4e9b:	48 83 c7 18          	add    $0x18,%rdi
    4e9f:	e9 ec 08 00 00       	jmpq   5790 <_ZN5alloc4sync12Arc$LT$T$GT$9drop_slow17h0c5b5e5b773186f6E>
    4ea4:	c3                   	retq   
    4ea5:	66 2e 0f 1f 84 00 00 	nopw   %cs:0x0(%rax,%rax,1)
    4eac:	00 00 00 
    4eaf:	90                   	nop

0000000000004eb0 <_ZN4core3ptr18real_drop_in_place17h494c75afe4337f66E>:
    4eb0:	48 8b 47 08          	mov    0x8(%rdi),%rax
    4eb4:	48 83 00 01          	addq   $0x1,(%rax)
    4eb8:	c3                   	retq   
    4eb9:	0f 1f 80 00 00 00 00 	nopl   0x0(%rax)

0000000000004ec0 <_ZN4core3ptr18real_drop_in_place17h4eefc0955dbded6dE>:
    4ec0:	ff 25 1a ec 02 00    	jmpq   *0x2ec1a(%rip)        # 33ae0 <_GLOBAL_OFFSET_TABLE_+0x180>
    4ec6:	66 2e 0f 1f 84 00 00 	nopw   %cs:0x0(%rax,%rax,1)
    4ecd:	00 00 00 

0000000000004ed0 <_ZN4core3ptr18real_drop_in_place17h5613a03847a05628E>:
    4ed0:	48 8b 4f 10          	mov    0x10(%rdi),%rcx
    4ed4:	48 8b 47 18          	mov    0x18(%rdi),%rax
    4ed8:	48 29 c8             	sub    %rcx,%rax
    4edb:	0f 1f 44 00 00       	nopl   0x0(%rax,%rax,1)
    4ee0:	48 85 c0             	test   %rax,%rax
    4ee3:	74 16                	je     4efb <_ZN4core3ptr18real_drop_in_place17h5613a03847a05628E+0x2b>
    4ee5:	48 8d 51 10          	lea    0x10(%rcx),%rdx
    4ee9:	48 89 57 10          	mov    %rdx,0x10(%rdi)
    4eed:	48 83 c0 f0          	add    $0xfffffffffffffff0,%rax
    4ef1:	48 83 79 08 00       	cmpq   $0x0,0x8(%rcx)
    4ef6:	48 89 d1             	mov    %rdx,%rcx
    4ef9:	75 e5                	jne    4ee0 <_ZN4core3ptr18real_drop_in_place17h5613a03847a05628E+0x10>
    4efb:	48 8b 77 08          	mov    0x8(%rdi),%rsi
    4eff:	48 85 f6             	test   %rsi,%rsi
    4f02:	74 12                	je     4f16 <_ZN4core3ptr18real_drop_in_place17h5613a03847a05628E+0x46>
    4f04:	48 8b 3f             	mov    (%rdi),%rdi
    4f07:	48 c1 e6 04          	shl    $0x4,%rsi
    4f0b:	ba 08 00 00 00       	mov    $0x8,%edx
    4f10:	ff 25 62 ed 02 00    	jmpq   *0x2ed62(%rip)        # 33c78 <_GLOBAL_OFFSET_TABLE_+0x318>
    4f16:	c3                   	retq   
    4f17:	66 0f 1f 84 00 00 00 	nopw   0x0(%rax,%rax,1)
    4f1e:	00 00 

0000000000004f20 <_ZN4core3ptr18real_drop_in_place17h5b2143bad871af44E>:
    4f20:	41 57                	push   %r15
    4f22:	41 56                	push   %r14
    4f24:	41 54                	push   %r12
    4f26:	53                   	push   %rbx
    4f27:	50                   	push   %rax
    4f28:	49 89 fe             	mov    %rdi,%r14
    4f2b:	48 8b 47 10          	mov    0x10(%rdi),%rax
    4f2f:	48 3b 47 18          	cmp    0x18(%rdi),%rax
    4f33:	74 43                	je     4f78 <_ZN4core3ptr18real_drop_in_place17h5b2143bad871af44E+0x58>
    4f35:	4c 8d 25 d4 f5 ff ff 	lea    -0xa2c(%rip),%r12        # 4510 <__rust_dealloc>
    4f3c:	eb 0c                	jmp    4f4a <_ZN4core3ptr18real_drop_in_place17h5b2143bad871af44E+0x2a>
    4f3e:	66 90                	xchg   %ax,%ax
    4f40:	49 8b 46 10          	mov    0x10(%r14),%rax
    4f44:	49 3b 46 18          	cmp    0x18(%r14),%rax
    4f48:	74 2e                	je     4f78 <_ZN4core3ptr18real_drop_in_place17h5b2143bad871af44E+0x58>
    4f4a:	48 8d 48 10          	lea    0x10(%rax),%rcx
    4f4e:	49 89 4e 10          	mov    %rcx,0x10(%r14)
    4f52:	4c 8b 38             	mov    (%rax),%r15
    4f55:	4d 85 ff             	test   %r15,%r15
    4f58:	74 1e                	je     4f78 <_ZN4core3ptr18real_drop_in_place17h5b2143bad871af44E+0x58>
    4f5a:	48 8b 58 08          	mov    0x8(%rax),%rbx
    4f5e:	4c 89 ff             	mov    %r15,%rdi
    4f61:	ff 13                	callq  *(%rbx)
    4f63:	48 8b 73 08          	mov    0x8(%rbx),%rsi
    4f67:	48 85 f6             	test   %rsi,%rsi
    4f6a:	74 d4                	je     4f40 <_ZN4core3ptr18real_drop_in_place17h5b2143bad871af44E+0x20>
    4f6c:	48 8b 53 10          	mov    0x10(%rbx),%rdx
    4f70:	4c 89 ff             	mov    %r15,%rdi
    4f73:	41 ff d4             	callq  *%r12
    4f76:	eb c8                	jmp    4f40 <_ZN4core3ptr18real_drop_in_place17h5b2143bad871af44E+0x20>
    4f78:	49 8b 76 08          	mov    0x8(%r14),%rsi
    4f7c:	48 85 f6             	test   %rsi,%rsi
    4f7f:	74 1d                	je     4f9e <_ZN4core3ptr18real_drop_in_place17h5b2143bad871af44E+0x7e>
    4f81:	49 8b 3e             	mov    (%r14),%rdi
    4f84:	48 c1 e6 04          	shl    $0x4,%rsi
    4f88:	ba 08 00 00 00       	mov    $0x8,%edx
    4f8d:	48 83 c4 08          	add    $0x8,%rsp
    4f91:	5b                   	pop    %rbx
    4f92:	41 5c                	pop    %r12
    4f94:	41 5e                	pop    %r14
    4f96:	41 5f                	pop    %r15
    4f98:	ff 25 da ec 02 00    	jmpq   *0x2ecda(%rip)        # 33c78 <_GLOBAL_OFFSET_TABLE_+0x318>
    4f9e:	48 83 c4 08          	add    $0x8,%rsp
    4fa2:	5b                   	pop    %rbx
    4fa3:	41 5c                	pop    %r12
    4fa5:	41 5e                	pop    %r14
    4fa7:	41 5f                	pop    %r15
    4fa9:	c3                   	retq   
    4faa:	49 89 c6             	mov    %rax,%r14
    4fad:	4c 89 ff             	mov    %r15,%rdi
    4fb0:	48 89 de             	mov    %rbx,%rsi
    4fb3:	e8 88 08 00 00       	callq  5840 <_ZN5alloc5alloc8box_free17h2a75dddd895d38ecE>
    4fb8:	4c 89 f7             	mov    %r14,%rdi
    4fbb:	e8 f0 f1 ff ff       	callq  41b0 <_Unwind_Resume@plt>
    4fc0:	0f 0b                	ud2    
    4fc2:	66 2e 0f 1f 84 00 00 	nopw   %cs:0x0(%rax,%rax,1)
    4fc9:	00 00 00 
    4fcc:	0f 1f 40 00          	nopl   0x0(%rax)

0000000000004fd0 <_ZN4core3ptr18real_drop_in_place17h5cd56ca2e2d6b4ccE>:
    4fd0:	48 8b 3f             	mov    (%rdi),%rdi
    4fd3:	ff 25 27 ee 02 00    	jmpq   *0x2ee27(%rip)        # 33e00 <pthread_mutex_unlock@GLIBC_2.2.5>
    4fd9:	0f 1f 80 00 00 00 00 	nopl   0x0(%rax)

0000000000004fe0 <_ZN4core3ptr18real_drop_in_place17h6b960222c36ec983E>:
    4fe0:	41 56                	push   %r14
    4fe2:	53                   	push   %rbx
    4fe3:	50                   	push   %rax
    4fe4:	48 89 fb             	mov    %rdi,%rbx
    4fe7:	48 8b 3f             	mov    (%rdi),%rdi
    4fea:	48 8b 43 08          	mov    0x8(%rbx),%rax
    4fee:	ff 10                	callq  *(%rax)
    4ff0:	48 8b 43 08          	mov    0x8(%rbx),%rax
    4ff4:	48 8b 70 08          	mov    0x8(%rax),%rsi
    4ff8:	48 85 f6             	test   %rsi,%rsi
    4ffb:	74 14                	je     5011 <_ZN4core3ptr18real_drop_in_place17h6b960222c36ec983E+0x31>
    4ffd:	48 8b 3b             	mov    (%rbx),%rdi
    5000:	48 8b 50 10          	mov    0x10(%rax),%rdx
    5004:	48 83 c4 08          	add    $0x8,%rsp
    5008:	5b                   	pop    %rbx
    5009:	41 5e                	pop    %r14
    500b:	ff 25 67 ec 02 00    	jmpq   *0x2ec67(%rip)        # 33c78 <_GLOBAL_OFFSET_TABLE_+0x318>
    5011:	48 83 c4 08          	add    $0x8,%rsp
    5015:	5b                   	pop    %rbx
    5016:	41 5e                	pop    %r14
    5018:	c3                   	retq   
    5019:	49 89 c6             	mov    %rax,%r14
    501c:	48 8b 3b             	mov    (%rbx),%rdi
    501f:	48 8b 73 08          	mov    0x8(%rbx),%rsi
    5023:	e8 18 08 00 00       	callq  5840 <_ZN5alloc5alloc8box_free17h2a75dddd895d38ecE>
    5028:	4c 89 f7             	mov    %r14,%rdi
    502b:	e8 80 f1 ff ff       	callq  41b0 <_Unwind_Resume@plt>
    5030:	0f 0b                	ud2    
    5032:	66 2e 0f 1f 84 00 00 	nopw   %cs:0x0(%rax,%rax,1)
    5039:	00 00 00 
    503c:	0f 1f 40 00          	nopl   0x0(%rax)

0000000000005040 <_ZN4core3ptr18real_drop_in_place17h76f090399cb225b7E>:
    5040:	48 89 f8             	mov    %rdi,%rax
    5043:	48 8b 3f             	mov    (%rdi),%rdi
    5046:	48 85 ff             	test   %rdi,%rdi
    5049:	74 14                	je     505f <_ZN4core3ptr18real_drop_in_place17h76f090399cb225b7E+0x1f>
    504b:	48 8b 70 08          	mov    0x8(%rax),%rsi
    504f:	48 85 f6             	test   %rsi,%rsi
    5052:	74 0b                	je     505f <_ZN4core3ptr18real_drop_in_place17h76f090399cb225b7E+0x1f>
    5054:	ba 01 00 00 00       	mov    $0x1,%edx
    5059:	ff 25 19 ec 02 00    	jmpq   *0x2ec19(%rip)        # 33c78 <_GLOBAL_OFFSET_TABLE_+0x318>
    505f:	c3                   	retq   

0000000000005060 <_ZN4core3ptr18real_drop_in_place17h79ee2ac300afb5cdE>:
    5060:	48 8b 07             	mov    (%rdi),%rax
    5063:	48 85 c0             	test   %rax,%rax
    5066:	74 0c                	je     5074 <_ZN4core3ptr18real_drop_in_place17h79ee2ac300afb5cdE+0x14>
    5068:	f0 48 83 28 01       	lock subq $0x1,(%rax)
    506d:	75 05                	jne    5074 <_ZN4core3ptr18real_drop_in_place17h79ee2ac300afb5cdE+0x14>
    506f:	e9 1c 07 00 00       	jmpq   5790 <_ZN5alloc4sync12Arc$LT$T$GT$9drop_slow17h0c5b5e5b773186f6E>
    5074:	c3                   	retq   
    5075:	66 2e 0f 1f 84 00 00 	nopw   %cs:0x0(%rax,%rax,1)
    507c:	00 00 00 
    507f:	90                   	nop

0000000000005080 <_ZN4core3ptr18real_drop_in_place17h7f237ce70837d4dcE>:
    5080:	48 8b 07             	mov    (%rdi),%rax
    5083:	f0 48 83 28 01       	lock subq $0x1,(%rax)
    5088:	75 05                	jne    508f <_ZN4core3ptr18real_drop_in_place17h7f237ce70837d4dcE+0xf>
    508a:	e9 41 07 00 00       	jmpq   57d0 <_ZN5alloc4sync12Arc$LT$T$GT$9drop_slow17ha0c32ee3838644daE>
    508f:	c3                   	retq   

0000000000005090 <_ZN4core3ptr18real_drop_in_place17h83a59a75cb801d04E>:
    5090:	41 57                	push   %r15
    5092:	41 56                	push   %r14
    5094:	53                   	push   %rbx
    5095:	80 3f 02             	cmpb   $0x2,(%rdi)
    5098:	73 06                	jae    50a0 <_ZN4core3ptr18real_drop_in_place17h83a59a75cb801d04E+0x10>
    509a:	5b                   	pop    %rbx
    509b:	41 5e                	pop    %r14
    509d:	41 5f                	pop    %r15
    509f:	c3                   	retq   
    50a0:	49 89 ff             	mov    %rdi,%r15
    50a3:	48 8b 5f 08          	mov    0x8(%rdi),%rbx
    50a7:	48 8b 3b             	mov    (%rbx),%rdi
    50aa:	48 8b 43 08          	mov    0x8(%rbx),%rax
    50ae:	ff 10                	callq  *(%rax)
    50b0:	48 8b 43 08          	mov    0x8(%rbx),%rax
    50b4:	48 8b 70 08          	mov    0x8(%rax),%rsi
    50b8:	48 85 f6             	test   %rsi,%rsi
    50bb:	74 0d                	je     50ca <_ZN4core3ptr18real_drop_in_place17h83a59a75cb801d04E+0x3a>
    50bd:	48 8b 3b             	mov    (%rbx),%rdi
    50c0:	48 8b 50 10          	mov    0x10(%rax),%rdx
    50c4:	ff 15 ae eb 02 00    	callq  *0x2ebae(%rip)        # 33c78 <_GLOBAL_OFFSET_TABLE_+0x318>
    50ca:	49 8b 7f 08          	mov    0x8(%r15),%rdi
    50ce:	be 18 00 00 00       	mov    $0x18,%esi
    50d3:	ba 08 00 00 00       	mov    $0x8,%edx
    50d8:	5b                   	pop    %rbx
    50d9:	41 5e                	pop    %r14
    50db:	41 5f                	pop    %r15
    50dd:	ff 25 95 eb 02 00    	jmpq   *0x2eb95(%rip)        # 33c78 <_GLOBAL_OFFSET_TABLE_+0x318>
    50e3:	49 89 c6             	mov    %rax,%r14
    50e6:	48 8b 3b             	mov    (%rbx),%rdi
    50e9:	48 8b 73 08          	mov    0x8(%rbx),%rsi
    50ed:	e8 4e 07 00 00       	callq  5840 <_ZN5alloc5alloc8box_free17h2a75dddd895d38ecE>
    50f2:	49 8b 7f 08          	mov    0x8(%r15),%rdi
    50f6:	e8 35 07 00 00       	callq  5830 <_ZN5alloc5alloc8box_free17h287287f638fe20d7E>
    50fb:	4c 89 f7             	mov    %r14,%rdi
    50fe:	e8 ad f0 ff ff       	callq  41b0 <_Unwind_Resume@plt>
    5103:	0f 0b                	ud2    
    5105:	66 2e 0f 1f 84 00 00 	nopw   %cs:0x0(%rax,%rax,1)
    510c:	00 00 00 
    510f:	90                   	nop

0000000000005110 <_ZN4core3ptr18real_drop_in_place17h898b5fde93487ae7E>:
    5110:	41 56                	push   %r14
    5112:	53                   	push   %rbx
    5113:	50                   	push   %rax
    5114:	83 3f 00             	cmpl   $0x0,(%rdi)
    5117:	74 2f                	je     5148 <_ZN4core3ptr18real_drop_in_place17h898b5fde93487ae7E+0x38>
    5119:	48 89 fb             	mov    %rdi,%rbx
    511c:	48 8b 7f 08          	mov    0x8(%rdi),%rdi
    5120:	48 8b 43 10          	mov    0x10(%rbx),%rax
    5124:	ff 10                	callq  *(%rax)
    5126:	48 8b 43 10          	mov    0x10(%rbx),%rax
    512a:	48 8b 70 08          	mov    0x8(%rax),%rsi
    512e:	48 85 f6             	test   %rsi,%rsi
    5131:	74 15                	je     5148 <_ZN4core3ptr18real_drop_in_place17h898b5fde93487ae7E+0x38>
    5133:	48 8b 7b 08          	mov    0x8(%rbx),%rdi
    5137:	48 8b 50 10          	mov    0x10(%rax),%rdx
    513b:	48 83 c4 08          	add    $0x8,%rsp
    513f:	5b                   	pop    %rbx
    5140:	41 5e                	pop    %r14
    5142:	ff 25 30 eb 02 00    	jmpq   *0x2eb30(%rip)        # 33c78 <_GLOBAL_OFFSET_TABLE_+0x318>
    5148:	48 83 c4 08          	add    $0x8,%rsp
    514c:	5b                   	pop    %rbx
    514d:	41 5e                	pop    %r14
    514f:	c3                   	retq   
    5150:	49 89 c6             	mov    %rax,%r14
    5153:	48 8b 7b 08          	mov    0x8(%rbx),%rdi
    5157:	48 8b 73 10          	mov    0x10(%rbx),%rsi
    515b:	e8 e0 06 00 00       	callq  5840 <_ZN5alloc5alloc8box_free17h2a75dddd895d38ecE>
    5160:	4c 89 f7             	mov    %r14,%rdi
    5163:	e8 48 f0 ff ff       	callq  41b0 <_Unwind_Resume@plt>
    5168:	0f 0b                	ud2    
    516a:	66 0f 1f 44 00 00    	nopw   0x0(%rax,%rax,1)

0000000000005170 <_ZN4core3ptr18real_drop_in_place17h9117565094ecfebcE>:
    5170:	53                   	push   %rbx
    5171:	48 89 fb             	mov    %rdi,%rbx
    5174:	80 7f 08 00          	cmpb   $0x0,0x8(%rdi)
    5178:	75 42                	jne    51bc <_ZN4core3ptr18real_drop_in_place17h9117565094ecfebcE+0x4c>
    517a:	66 66 66 64 48 8b 04 	data16 data16 data16 mov %fs:0x0,%rax
    5181:	25 00 00 00 00 
    5186:	48 89 c1             	mov    %rax,%rcx
    5189:	48 83 b8 e8 ff ff ff 	cmpq   $0x1,-0x18(%rax)
    5190:	01 
    5191:	75 13                	jne    51a6 <_ZN4core3ptr18real_drop_in_place17h9117565094ecfebcE+0x36>
    5193:	48 83 b8 f0 ff ff ff 	cmpq   $0x0,-0x10(%rax)
    519a:	00 
    519b:	74 1f                	je     51bc <_ZN4core3ptr18real_drop_in_place17h9117565094ecfebcE+0x4c>
    519d:	48 8b 03             	mov    (%rbx),%rax
    51a0:	c6 40 18 01          	movb   $0x1,0x18(%rax)
    51a4:	eb 16                	jmp    51bc <_ZN4core3ptr18real_drop_in_place17h9117565094ecfebcE+0x4c>
    51a6:	48 c7 80 e8 ff ff ff 	movq   $0x1,-0x18(%rax)
    51ad:	01 00 00 00 
    51b1:	48 c7 80 f0 ff ff ff 	movq   $0x0,-0x10(%rax)
    51b8:	00 00 00 00 
    51bc:	48 8b 03             	mov    (%rbx),%rax
    51bf:	48 8b 38             	mov    (%rax),%rdi
    51c2:	5b                   	pop    %rbx
    51c3:	ff 25 37 ec 02 00    	jmpq   *0x2ec37(%rip)        # 33e00 <pthread_mutex_unlock@GLIBC_2.2.5>
    51c9:	0f 1f 80 00 00 00 00 	nopl   0x0(%rax)

00000000000051d0 <_ZN4core3ptr18real_drop_in_place17h915d6f9a1c0a45e7E>:
    51d0:	41 56                	push   %r14
    51d2:	53                   	push   %rbx
    51d3:	50                   	push   %rax
    51d4:	48 89 fb             	mov    %rdi,%rbx
    51d7:	48 8b 07             	mov    (%rdi),%rax
    51da:	48 85 c0             	test   %rax,%rax
    51dd:	74 1a                	je     51f9 <_ZN4core3ptr18real_drop_in_place17h915d6f9a1c0a45e7E+0x29>
    51df:	c6 00 00             	movb   $0x0,(%rax)
    51e2:	48 8b 73 08          	mov    0x8(%rbx),%rsi
    51e6:	48 85 f6             	test   %rsi,%rsi
    51e9:	74 0e                	je     51f9 <_ZN4core3ptr18real_drop_in_place17h915d6f9a1c0a45e7E+0x29>
    51eb:	48 8b 3b             	mov    (%rbx),%rdi
    51ee:	ba 01 00 00 00       	mov    $0x1,%edx
    51f3:	ff 15 7f ea 02 00    	callq  *0x2ea7f(%rip)        # 33c78 <_GLOBAL_OFFSET_TABLE_+0x318>
    51f9:	48 8b 7b 20          	mov    0x20(%rbx),%rdi
    51fd:	ff 15 25 ea 02 00    	callq  *0x2ea25(%rip)        # 33c28 <pthread_mutex_destroy@GLIBC_2.2.5>
    5203:	48 8b 7b 20          	mov    0x20(%rbx),%rdi
    5207:	4c 8d 35 02 f3 ff ff 	lea    -0xcfe(%rip),%r14        # 4510 <__rust_dealloc>
    520e:	be 28 00 00 00       	mov    $0x28,%esi
    5213:	ba 08 00 00 00       	mov    $0x8,%edx
    5218:	41 ff d6             	callq  *%r14
    521b:	48 8b 7b 30          	mov    0x30(%rbx),%rdi
    521f:	ff 15 ab ec 02 00    	callq  *0x2ecab(%rip)        # 33ed0 <pthread_cond_destroy@GLIBC_2.3.2>
    5225:	48 8b 7b 30          	mov    0x30(%rbx),%rdi
    5229:	be 30 00 00 00       	mov    $0x30,%esi
    522e:	ba 08 00 00 00       	mov    $0x8,%edx
    5233:	4c 89 f0             	mov    %r14,%rax
    5236:	48 83 c4 08          	add    $0x8,%rsp
    523a:	5b                   	pop    %rbx
    523b:	41 5e                	pop    %r14
    523d:	ff e0                	jmpq   *%rax
    523f:	90                   	nop

0000000000005240 <_ZN4core3ptr18real_drop_in_place17h9b348cec699ed862E>:
    5240:	48 83 3f 02          	cmpq   $0x2,(%rdi)
    5244:	74 14                	je     525a <_ZN4core3ptr18real_drop_in_place17h9b348cec699ed862E+0x1a>
    5246:	48 8b 47 18          	mov    0x18(%rdi),%rax
    524a:	f0 48 83 28 01       	lock subq $0x1,(%rax)
    524f:	75 09                	jne    525a <_ZN4core3ptr18real_drop_in_place17h9b348cec699ed862E+0x1a>
    5251:	48 83 c7 18          	add    $0x18,%rdi
    5255:	e9 36 05 00 00       	jmpq   5790 <_ZN5alloc4sync12Arc$LT$T$GT$9drop_slow17h0c5b5e5b773186f6E>
    525a:	c3                   	retq   
    525b:	0f 1f 44 00 00       	nopl   0x0(%rax,%rax,1)

0000000000005260 <_ZN4core3ptr18real_drop_in_place17hb58585ba83139501E>:
    5260:	48 8b 07             	mov    (%rdi),%rax
    5263:	f0 48 83 28 01       	lock subq $0x1,(%rax)
    5268:	75 05                	jne    526f <_ZN4core3ptr18real_drop_in_place17hb58585ba83139501E+0xf>
    526a:	e9 21 05 00 00       	jmpq   5790 <_ZN5alloc4sync12Arc$LT$T$GT$9drop_slow17h0c5b5e5b773186f6E>
    526f:	c3                   	retq   

0000000000005270 <_ZN4core3ptr18real_drop_in_place17hc6fe20c54716ff31E>:
    5270:	41 56                	push   %r14
    5272:	53                   	push   %rbx
    5273:	50                   	push   %rax
    5274:	48 89 fb             	mov    %rdi,%rbx
    5277:	48 8b 3f             	mov    (%rdi),%rdi
    527a:	48 85 ff             	test   %rdi,%rdi
    527d:	74 27                	je     52a6 <_ZN4core3ptr18real_drop_in_place17hc6fe20c54716ff31E+0x36>
    527f:	48 8b 43 08          	mov    0x8(%rbx),%rax
    5283:	ff 10                	callq  *(%rax)
    5285:	48 8b 43 08          	mov    0x8(%rbx),%rax
    5289:	48 8b 70 08          	mov    0x8(%rax),%rsi
    528d:	48 85 f6             	test   %rsi,%rsi
    5290:	74 14                	je     52a6 <_ZN4core3ptr18real_drop_in_place17hc6fe20c54716ff31E+0x36>
    5292:	48 8b 3b             	mov    (%rbx),%rdi
    5295:	48 8b 50 10          	mov    0x10(%rax),%rdx
    5299:	48 83 c4 08          	add    $0x8,%rsp
    529d:	5b                   	pop    %rbx
    529e:	41 5e                	pop    %r14
    52a0:	ff 25 d2 e9 02 00    	jmpq   *0x2e9d2(%rip)        # 33c78 <_GLOBAL_OFFSET_TABLE_+0x318>
    52a6:	48 83 c4 08          	add    $0x8,%rsp
    52aa:	5b                   	pop    %rbx
    52ab:	41 5e                	pop    %r14
    52ad:	c3                   	retq   
    52ae:	49 89 c6             	mov    %rax,%r14
    52b1:	48 8b 3b             	mov    (%rbx),%rdi
    52b4:	48 8b 73 08          	mov    0x8(%rbx),%rsi
    52b8:	e8 83 05 00 00       	callq  5840 <_ZN5alloc5alloc8box_free17h2a75dddd895d38ecE>
    52bd:	4c 89 f7             	mov    %r14,%rdi
    52c0:	e8 eb ee ff ff       	callq  41b0 <_Unwind_Resume@plt>
    52c5:	0f 0b                	ud2    
    52c7:	66 0f 1f 84 00 00 00 	nopw   0x0(%rax,%rax,1)
    52ce:	00 00 

00000000000052d0 <_ZN4core3ptr18real_drop_in_place17hd46515c13b26867dE>:
    52d0:	48 89 f8             	mov    %rdi,%rax
    52d3:	48 8b 7f 08          	mov    0x8(%rdi),%rdi
    52d7:	48 85 ff             	test   %rdi,%rdi
    52da:	74 14                	je     52f0 <_ZN4core3ptr18real_drop_in_place17hd46515c13b26867dE+0x20>
    52dc:	48 8b 70 10          	mov    0x10(%rax),%rsi
    52e0:	48 85 f6             	test   %rsi,%rsi
    52e3:	74 0b                	je     52f0 <_ZN4core3ptr18real_drop_in_place17hd46515c13b26867dE+0x20>
    52e5:	ba 01 00 00 00       	mov    $0x1,%edx
    52ea:	ff 25 88 e9 02 00    	jmpq   *0x2e988(%rip)        # 33c78 <_GLOBAL_OFFSET_TABLE_+0x318>
    52f0:	c3                   	retq   
    52f1:	66 2e 0f 1f 84 00 00 	nopw   %cs:0x0(%rax,%rax,1)
    52f8:	00 00 00 
    52fb:	0f 1f 44 00 00       	nopl   0x0(%rax,%rax,1)

0000000000005300 <_ZN4core3ptr18real_drop_in_place17hd8857463860622e7E>:
    5300:	48 8d 3d b9 ed 02 00 	lea    0x2edb9(%rip),%rdi        # 340c0 <_ZN3std10sys_common9backtrace4lock4LOCK17h5fc66d03f211c6c4E>
    5307:	ff 25 f3 ea 02 00    	jmpq   *0x2eaf3(%rip)        # 33e00 <pthread_mutex_unlock@GLIBC_2.2.5>
    530d:	0f 1f 00             	nopl   (%rax)

0000000000005310 <_ZN4core3ptr18real_drop_in_place17he0692247f0909581E>:
    5310:	53                   	push   %rbx
    5311:	48 89 fb             	mov    %rdi,%rbx
    5314:	48 8b 3f             	mov    (%rdi),%rdi
    5317:	ff 15 0b e9 02 00    	callq  *0x2e90b(%rip)        # 33c28 <pthread_mutex_destroy@GLIBC_2.2.5>
    531d:	48 8b 3b             	mov    (%rbx),%rdi
    5320:	be 28 00 00 00       	mov    $0x28,%esi
    5325:	ba 08 00 00 00       	mov    $0x8,%edx
    532a:	5b                   	pop    %rbx
    532b:	ff 25 47 e9 02 00    	jmpq   *0x2e947(%rip)        # 33c78 <_GLOBAL_OFFSET_TABLE_+0x318>
    5331:	66 2e 0f 1f 84 00 00 	nopw   %cs:0x0(%rax,%rax,1)
    5338:	00 00 00 
    533b:	0f 1f 44 00 00       	nopl   0x0(%rax,%rax,1)

0000000000005340 <_ZN4core3ptr18real_drop_in_place17he247cb4599a85b27E>:
    5340:	48 83 3f 00          	cmpq   $0x0,(%rdi)
    5344:	74 09                	je     534f <_ZN4core3ptr18real_drop_in_place17he247cb4599a85b27E+0xf>
    5346:	48 83 c7 08          	add    $0x8,%rdi
    534a:	e9 41 fd ff ff       	jmpq   5090 <_ZN4core3ptr18real_drop_in_place17h83a59a75cb801d04E>
    534f:	c3                   	retq   

0000000000005350 <_ZN4core3ptr18real_drop_in_place17hf4125b2281ae60b7E>:
    5350:	48 8b 07             	mov    (%rdi),%rax
    5353:	48 85 c0             	test   %rax,%rax
    5356:	74 0c                	je     5364 <_ZN4core3ptr18real_drop_in_place17hf4125b2281ae60b7E+0x14>
    5358:	f0 48 83 28 01       	lock subq $0x1,(%rax)
    535d:	75 05                	jne    5364 <_ZN4core3ptr18real_drop_in_place17hf4125b2281ae60b7E+0x14>
    535f:	e9 6c 04 00 00       	jmpq   57d0 <_ZN5alloc4sync12Arc$LT$T$GT$9drop_slow17ha0c32ee3838644daE>
    5364:	c3                   	retq   
    5365:	66 2e 0f 1f 84 00 00 	nopw   %cs:0x0(%rax,%rax,1)
    536c:	00 00 00 
    536f:	90                   	nop

0000000000005370 <_ZN4core3ptr18real_drop_in_place17hf4d081ff0d1bd59bE>:
    5370:	ff 25 4a e7 02 00    	jmpq   *0x2e74a(%rip)        # 33ac0 <_GLOBAL_OFFSET_TABLE_+0x160>
    5376:	66 2e 0f 1f 84 00 00 	nopw   %cs:0x0(%rax,%rax,1)
    537d:	00 00 00 

0000000000005380 <_ZN4core3ptr18real_drop_in_place17hfb16540ad468e748E>:
    5380:	41 56                	push   %r14
    5382:	53                   	push   %rbx
    5383:	50                   	push   %rax
    5384:	48 89 fb             	mov    %rdi,%rbx
    5387:	48 8b 3f             	mov    (%rdi),%rdi
    538a:	48 8b 43 08          	mov    0x8(%rbx),%rax
    538e:	ff 10                	callq  *(%rax)
    5390:	48 8b 43 08          	mov    0x8(%rbx),%rax
    5394:	48 8b 70 08          	mov    0x8(%rax),%rsi
    5398:	48 85 f6             	test   %rsi,%rsi
    539b:	74 14                	je     53b1 <_ZN4core3ptr18real_drop_in_place17hfb16540ad468e748E+0x31>
    539d:	48 8b 3b             	mov    (%rbx),%rdi
    53a0:	48 8b 50 10          	mov    0x10(%rax),%rdx
    53a4:	48 83 c4 08          	add    $0x8,%rsp
    53a8:	5b                   	pop    %rbx
    53a9:	41 5e                	pop    %r14
    53ab:	ff 25 c7 e8 02 00    	jmpq   *0x2e8c7(%rip)        # 33c78 <_GLOBAL_OFFSET_TABLE_+0x318>
    53b1:	48 83 c4 08          	add    $0x8,%rsp
    53b5:	5b                   	pop    %rbx
    53b6:	41 5e                	pop    %r14
    53b8:	c3                   	retq   
    53b9:	49 89 c6             	mov    %rax,%r14
    53bc:	48 8b 3b             	mov    (%rbx),%rdi
    53bf:	48 8b 73 08          	mov    0x8(%rbx),%rsi
    53c3:	e8 78 04 00 00       	callq  5840 <_ZN5alloc5alloc8box_free17h2a75dddd895d38ecE>
    53c8:	4c 89 f7             	mov    %r14,%rdi
    53cb:	e8 e0 ed ff ff       	callq  41b0 <_Unwind_Resume@plt>
    53d0:	0f 0b                	ud2    
    53d2:	66 2e 0f 1f 84 00 00 	nopw   %cs:0x0(%rax,%rax,1)
    53d9:	00 00 00 
    53dc:	0f 1f 40 00          	nopl   0x0(%rax)

00000000000053e0 <_ZN4core3str6traits105_$LT$impl$u20$core..slice..SliceIndex$LT$str$GT$$u20$for$u20$core..ops..range..RangeFrom$LT$usize$GT$$GT$5index28_$u7b$$u7b$closure$u7d$$u7d$17he352534f25614c01E>:
    53e0:	50                   	push   %rax
    53e1:	48 8b 0f             	mov    (%rdi),%rcx
    53e4:	48 8b 57 08          	mov    0x8(%rdi),%rdx
    53e8:	48 8b 01             	mov    (%rcx),%rax
    53eb:	48 8b 71 08          	mov    0x8(%rcx),%rsi
    53ef:	48 8b 12             	mov    (%rdx),%rdx
    53f2:	48 8b 4f 10          	mov    0x10(%rdi),%rcx
    53f6:	48 8b 09             	mov    (%rcx),%rcx
    53f9:	48 89 c7             	mov    %rax,%rdi
    53fc:	ff 15 c6 eb 02 00    	callq  *0x2ebc6(%rip)        # 33fc8 <_GLOBAL_OFFSET_TABLE_+0x668>
    5402:	0f 0b                	ud2    
    5404:	66 2e 0f 1f 84 00 00 	nopw   %cs:0x0(%rax,%rax,1)
    540b:	00 00 00 
    540e:	66 90                	xchg   %ax,%ax

0000000000005410 <_ZN50_$LT$$RF$mut$u20$W$u20$as$u20$core..fmt..Write$GT$10write_char17h6e5c61af36417927E>:
    5410:	48 8b 3f             	mov    (%rdi),%rdi
    5413:	e9 98 f5 ff ff       	jmpq   49b0 <_ZN4core3fmt5Write10write_char17hdd275ba1452c8861E>
    5418:	0f 1f 84 00 00 00 00 	nopl   0x0(%rax,%rax,1)
    541f:	00 

0000000000005420 <_ZN50_$LT$$RF$mut$u20$W$u20$as$u20$core..fmt..Write$GT$10write_char17h963ba4d25c6b2d41E>:
    5420:	48 8b 3f             	mov    (%rdi),%rdi
    5423:	e9 68 f4 ff ff       	jmpq   4890 <_ZN4core3fmt5Write10write_char17h03e8e09565963996E>
    5428:	0f 1f 84 00 00 00 00 	nopl   0x0(%rax,%rax,1)
    542f:	00 

0000000000005430 <_ZN50_$LT$$RF$mut$u20$W$u20$as$u20$core..fmt..Write$GT$10write_char17hc20ddf57d50cee8cE>:
    5430:	55                   	push   %rbp
    5431:	41 56                	push   %r14
    5433:	53                   	push   %rbx
    5434:	48 83 ec 10          	sub    $0x10,%rsp
    5438:	89 f5                	mov    %esi,%ebp
    543a:	4c 8b 37             	mov    (%rdi),%r14
    543d:	81 fe 80 00 00 00    	cmp    $0x80,%esi
    5443:	73 51                	jae    5496 <_ZN50_$LT$$RF$mut$u20$W$u20$as$u20$core..fmt..Write$GT$10write_char17hc20ddf57d50cee8cE+0x66>
    5445:	49 8b 76 10          	mov    0x10(%r14),%rsi
    5449:	49 3b 76 08          	cmp    0x8(%r14),%rsi
    544d:	75 78                	jne    54c7 <_ZN50_$LT$$RF$mut$u20$W$u20$as$u20$core..fmt..Write$GT$10write_char17hc20ddf57d50cee8cE+0x97>
    544f:	48 89 f3             	mov    %rsi,%rbx
    5452:	48 ff c3             	inc    %rbx
    5455:	0f 84 2a 01 00 00    	je     5585 <_ZN50_$LT$$RF$mut$u20$W$u20$as$u20$core..fmt..Write$GT$10write_char17hc20ddf57d50cee8cE+0x155>
    545b:	48 8d 04 36          	lea    (%rsi,%rsi,1),%rax
    545f:	48 39 d8             	cmp    %rbx,%rax
    5462:	48 0f 47 d8          	cmova  %rax,%rbx
    5466:	48 85 f6             	test   %rsi,%rsi
    5469:	0f 84 ef 00 00 00    	je     555e <_ZN50_$LT$$RF$mut$u20$W$u20$as$u20$core..fmt..Write$GT$10write_char17hc20ddf57d50cee8cE+0x12e>
    546f:	49 8b 3e             	mov    (%r14),%rdi
    5472:	ba 01 00 00 00       	mov    $0x1,%edx
    5477:	48 89 d9             	mov    %rbx,%rcx
    547a:	ff 15 28 eb 02 00    	callq  *0x2eb28(%rip)        # 33fa8 <_GLOBAL_OFFSET_TABLE_+0x648>
    5480:	48 85 c0             	test   %rax,%rax
    5483:	0f 84 ec 00 00 00    	je     5575 <_ZN50_$LT$$RF$mut$u20$W$u20$as$u20$core..fmt..Write$GT$10write_char17hc20ddf57d50cee8cE+0x145>
    5489:	49 89 06             	mov    %rax,(%r14)
    548c:	49 89 5e 08          	mov    %rbx,0x8(%r14)
    5490:	49 8b 76 10          	mov    0x10(%r14),%rsi
    5494:	eb 34                	jmp    54ca <_ZN50_$LT$$RF$mut$u20$W$u20$as$u20$core..fmt..Write$GT$10write_char17hc20ddf57d50cee8cE+0x9a>
    5496:	c7 44 24 0c 00 00 00 	movl   $0x0,0xc(%rsp)
    549d:	00 
    549e:	89 e8                	mov    %ebp,%eax
    54a0:	81 fd 00 08 00 00    	cmp    $0x800,%ebp
    54a6:	73 2d                	jae    54d5 <_ZN50_$LT$$RF$mut$u20$W$u20$as$u20$core..fmt..Write$GT$10write_char17hc20ddf57d50cee8cE+0xa5>
    54a8:	c1 e8 06             	shr    $0x6,%eax
    54ab:	24 1f                	and    $0x1f,%al
    54ad:	0c c0                	or     $0xc0,%al
    54af:	88 44 24 0c          	mov    %al,0xc(%rsp)
    54b3:	40 80 e5 3f          	and    $0x3f,%bpl
    54b7:	40 80 cd 80          	or     $0x80,%bpl
    54bb:	40 88 6c 24 0d       	mov    %bpl,0xd(%rsp)
    54c0:	b8 02 00 00 00       	mov    $0x2,%eax
    54c5:	eb 77                	jmp    553e <_ZN50_$LT$$RF$mut$u20$W$u20$as$u20$core..fmt..Write$GT$10write_char17hc20ddf57d50cee8cE+0x10e>
    54c7:	49 8b 06             	mov    (%r14),%rax
    54ca:	40 88 2c 30          	mov    %bpl,(%rax,%rsi,1)
    54ce:	49 83 46 10 01       	addq   $0x1,0x10(%r14)
    54d3:	eb 7e                	jmp    5553 <_ZN50_$LT$$RF$mut$u20$W$u20$as$u20$core..fmt..Write$GT$10write_char17hc20ddf57d50cee8cE+0x123>
    54d5:	81 fd 00 00 01 00    	cmp    $0x10000,%ebp
    54db:	73 2c                	jae    5509 <_ZN50_$LT$$RF$mut$u20$W$u20$as$u20$core..fmt..Write$GT$10write_char17hc20ddf57d50cee8cE+0xd9>
    54dd:	c1 e8 0c             	shr    $0xc,%eax
    54e0:	24 0f                	and    $0xf,%al
    54e2:	0c e0                	or     $0xe0,%al
    54e4:	88 44 24 0c          	mov    %al,0xc(%rsp)
    54e8:	89 e8                	mov    %ebp,%eax
    54ea:	c1 e8 06             	shr    $0x6,%eax
    54ed:	24 3f                	and    $0x3f,%al
    54ef:	0c 80                	or     $0x80,%al
    54f1:	88 44 24 0d          	mov    %al,0xd(%rsp)
    54f5:	40 80 e5 3f          	and    $0x3f,%bpl
    54f9:	40 80 cd 80          	or     $0x80,%bpl
    54fd:	40 88 6c 24 0e       	mov    %bpl,0xe(%rsp)
    5502:	b8 03 00 00 00       	mov    $0x3,%eax
    5507:	eb 35                	jmp    553e <_ZN50_$LT$$RF$mut$u20$W$u20$as$u20$core..fmt..Write$GT$10write_char17hc20ddf57d50cee8cE+0x10e>
    5509:	c1 e8 12             	shr    $0x12,%eax
    550c:	0c f0                	or     $0xf0,%al
    550e:	88 44 24 0c          	mov    %al,0xc(%rsp)
    5512:	89 e8                	mov    %ebp,%eax
    5514:	c1 e8 0c             	shr    $0xc,%eax
    5517:	24 3f                	and    $0x3f,%al
    5519:	0c 80                	or     $0x80,%al
    551b:	88 44 24 0d          	mov    %al,0xd(%rsp)
    551f:	89 e8                	mov    %ebp,%eax
    5521:	c1 e8 06             	shr    $0x6,%eax
    5524:	24 3f                	and    $0x3f,%al
    5526:	0c 80                	or     $0x80,%al
    5528:	88 44 24 0e          	mov    %al,0xe(%rsp)
    552c:	40 80 e5 3f          	and    $0x3f,%bpl
    5530:	40 80 cd 80          	or     $0x80,%bpl
    5534:	40 88 6c 24 0f       	mov    %bpl,0xf(%rsp)
    5539:	b8 04 00 00 00       	mov    $0x4,%eax
    553e:	48 8d 14 04          	lea    (%rsp,%rax,1),%rdx
    5542:	48 83 c2 0c          	add    $0xc,%rdx
    5546:	48 8d 74 24 0c       	lea    0xc(%rsp),%rsi
    554b:	4c 89 f7             	mov    %r14,%rdi
    554e:	e8 dd ef ff ff       	callq  4530 <_ZN109_$LT$alloc..vec..Vec$LT$T$GT$$u20$as$u20$alloc..vec..SpecExtend$LT$$RF$T$C$core..slice..Iter$LT$T$GT$$GT$$GT$11spec_extend17hf251a0cfb7cf13efE>
    5553:	31 c0                	xor    %eax,%eax
    5555:	48 83 c4 10          	add    $0x10,%rsp
    5559:	5b                   	pop    %rbx
    555a:	41 5e                	pop    %r14
    555c:	5d                   	pop    %rbp
    555d:	c3                   	retq   
    555e:	be 01 00 00 00       	mov    $0x1,%esi
    5563:	48 89 df             	mov    %rbx,%rdi
    5566:	ff 15 a4 e6 02 00    	callq  *0x2e6a4(%rip)        # 33c10 <_GLOBAL_OFFSET_TABLE_+0x2b0>
    556c:	48 85 c0             	test   %rax,%rax
    556f:	0f 85 14 ff ff ff    	jne    5489 <_ZN50_$LT$$RF$mut$u20$W$u20$as$u20$core..fmt..Write$GT$10write_char17hc20ddf57d50cee8cE+0x59>
    5575:	be 01 00 00 00       	mov    $0x1,%esi
    557a:	48 89 df             	mov    %rbx,%rdi
    557d:	ff 15 2d e6 02 00    	callq  *0x2e62d(%rip)        # 33bb0 <_GLOBAL_OFFSET_TABLE_+0x250>
    5583:	0f 0b                	ud2    
    5585:	ff 15 4d e5 02 00    	callq  *0x2e54d(%rip)        # 33ad8 <_GLOBAL_OFFSET_TABLE_+0x178>
    558b:	0f 0b                	ud2    
    558d:	0f 1f 00             	nopl   (%rax)

0000000000005590 <_ZN50_$LT$$RF$mut$u20$W$u20$as$u20$core..fmt..Write$GT$9write_fmt17h140867833741f5d7E>:
    5590:	48 83 ec 48          	sub    $0x48,%rsp
    5594:	48 8b 07             	mov    (%rdi),%rax
    5597:	48 89 44 24 08       	mov    %rax,0x8(%rsp)
    559c:	0f 10 06             	movups (%rsi),%xmm0
    559f:	0f 10 4e 10          	movups 0x10(%rsi),%xmm1
    55a3:	0f 10 56 20          	movups 0x20(%rsi),%xmm2
    55a7:	0f 29 54 24 30       	movaps %xmm2,0x30(%rsp)
    55ac:	0f 29 4c 24 20       	movaps %xmm1,0x20(%rsp)
    55b1:	0f 29 44 24 10       	movaps %xmm0,0x10(%rsp)
    55b6:	48 8d 35 6b ca 02 00 	lea    0x2ca6b(%rip),%rsi        # 32028 <anon.2a2a8279f82dd18d5d6ec8aaf5193350.2.llvm.9782508449811801216+0x60>
    55bd:	48 8d 7c 24 08       	lea    0x8(%rsp),%rdi
    55c2:	48 8d 54 24 10       	lea    0x10(%rsp),%rdx
    55c7:	ff 15 63 e6 02 00    	callq  *0x2e663(%rip)        # 33c30 <_GLOBAL_OFFSET_TABLE_+0x2d0>
    55cd:	48 83 c4 48          	add    $0x48,%rsp
    55d1:	c3                   	retq   
    55d2:	66 2e 0f 1f 84 00 00 	nopw   %cs:0x0(%rax,%rax,1)
    55d9:	00 00 00 
    55dc:	0f 1f 40 00          	nopl   0x0(%rax)

00000000000055e0 <_ZN50_$LT$$RF$mut$u20$W$u20$as$u20$core..fmt..Write$GT$9write_fmt17h65e1c946ac830448E>:
    55e0:	48 83 ec 48          	sub    $0x48,%rsp
    55e4:	48 8b 07             	mov    (%rdi),%rax
    55e7:	48 89 44 24 08       	mov    %rax,0x8(%rsp)
    55ec:	0f 10 06             	movups (%rsi),%xmm0
    55ef:	0f 10 4e 10          	movups 0x10(%rsi),%xmm1
    55f3:	0f 10 56 20          	movups 0x20(%rsi),%xmm2
    55f7:	0f 29 54 24 30       	movaps %xmm2,0x30(%rsp)
    55fc:	0f 29 4c 24 20       	movaps %xmm1,0x20(%rsp)
    5601:	0f 29 44 24 10       	movaps %xmm0,0x10(%rsp)
    5606:	48 8d 35 4b ca 02 00 	lea    0x2ca4b(%rip),%rsi        # 32058 <anon.2a2a8279f82dd18d5d6ec8aaf5193350.2.llvm.9782508449811801216+0x90>
    560d:	48 8d 7c 24 08       	lea    0x8(%rsp),%rdi
    5612:	48 8d 54 24 10       	lea    0x10(%rsp),%rdx
    5617:	ff 15 13 e6 02 00    	callq  *0x2e613(%rip)        # 33c30 <_GLOBAL_OFFSET_TABLE_+0x2d0>
    561d:	48 83 c4 48          	add    $0x48,%rsp
    5621:	c3                   	retq   
    5622:	66 2e 0f 1f 84 00 00 	nopw   %cs:0x0(%rax,%rax,1)
    5629:	00 00 00 
    562c:	0f 1f 40 00          	nopl   0x0(%rax)

0000000000005630 <_ZN50_$LT$$RF$mut$u20$W$u20$as$u20$core..fmt..Write$GT$9write_fmt17hf5fdca59e3e3b4a5E>:
    5630:	48 83 ec 48          	sub    $0x48,%rsp
    5634:	48 8b 07             	mov    (%rdi),%rax
    5637:	48 89 44 24 08       	mov    %rax,0x8(%rsp)
    563c:	0f 10 06             	movups (%rsi),%xmm0
    563f:	0f 10 4e 10          	movups 0x10(%rsi),%xmm1
    5643:	0f 10 56 20          	movups 0x20(%rsi),%xmm2
    5647:	0f 29 54 24 30       	movaps %xmm2,0x30(%rsp)
    564c:	0f 29 4c 24 20       	movaps %xmm1,0x20(%rsp)
    5651:	0f 29 44 24 10       	movaps %xmm0,0x10(%rsp)
    5656:	48 8d 35 9b c9 02 00 	lea    0x2c99b(%rip),%rsi        # 31ff8 <anon.2a2a8279f82dd18d5d6ec8aaf5193350.2.llvm.9782508449811801216+0x30>
    565d:	48 8d 7c 24 08       	lea    0x8(%rsp),%rdi
    5662:	48 8d 54 24 10       	lea    0x10(%rsp),%rdx
    5667:	ff 15 c3 e5 02 00    	callq  *0x2e5c3(%rip)        # 33c30 <_GLOBAL_OFFSET_TABLE_+0x2d0>
    566d:	48 83 c4 48          	add    $0x48,%rsp
    5671:	c3                   	retq   
    5672:	66 2e 0f 1f 84 00 00 	nopw   %cs:0x0(%rax,%rax,1)
    5679:	00 00 00 
    567c:	0f 1f 40 00          	nopl   0x0(%rax)

0000000000005680 <_ZN50_$LT$$RF$mut$u20$W$u20$as$u20$core..fmt..Write$GT$9write_str17h5b93bfb91011c8c5E>:
    5680:	53                   	push   %rbx
    5681:	48 83 ec 20          	sub    $0x20,%rsp
    5685:	48 89 d1             	mov    %rdx,%rcx
    5688:	48 89 f2             	mov    %rsi,%rdx
    568b:	48 8b 1f             	mov    (%rdi),%rbx
    568e:	48 8b 33             	mov    (%rbx),%rsi
    5691:	48 8d 7c 24 10       	lea    0x10(%rsp),%rdi
    5696:	e8 85 24 00 00       	callq  7b20 <_ZN3std2io5Write9write_all17h7ce6f8863cd620beE>
    569b:	80 7c 24 10 03       	cmpb   $0x3,0x10(%rsp)
    56a0:	75 04                	jne    56a6 <_ZN50_$LT$$RF$mut$u20$W$u20$as$u20$core..fmt..Write$GT$9write_str17h5b93bfb91011c8c5E+0x26>
    56a2:	31 c0                	xor    %eax,%eax
    56a4:	eb 24                	jmp    56ca <_ZN50_$LT$$RF$mut$u20$W$u20$as$u20$core..fmt..Write$GT$9write_str17h5b93bfb91011c8c5E+0x4a>
    56a6:	0f 10 44 24 10       	movups 0x10(%rsp),%xmm0
    56ab:	0f 29 04 24          	movaps %xmm0,(%rsp)
    56af:	80 7b 08 03          	cmpb   $0x3,0x8(%rbx)
    56b3:	48 8d 5b 08          	lea    0x8(%rbx),%rbx
    56b7:	74 08                	je     56c1 <_ZN50_$LT$$RF$mut$u20$W$u20$as$u20$core..fmt..Write$GT$9write_str17h5b93bfb91011c8c5E+0x41>
    56b9:	48 89 df             	mov    %rbx,%rdi
    56bc:	e8 cf f9 ff ff       	callq  5090 <_ZN4core3ptr18real_drop_in_place17h83a59a75cb801d04E>
    56c1:	0f 28 04 24          	movaps (%rsp),%xmm0
    56c5:	0f 11 03             	movups %xmm0,(%rbx)
    56c8:	b0 01                	mov    $0x1,%al
    56ca:	48 83 c4 20          	add    $0x20,%rsp
    56ce:	5b                   	pop    %rbx
    56cf:	c3                   	retq   
    56d0:	0f 28 04 24          	movaps (%rsp),%xmm0
    56d4:	0f 11 03             	movups %xmm0,(%rbx)
    56d7:	48 89 c7             	mov    %rax,%rdi
    56da:	e8 d1 ea ff ff       	callq  41b0 <_Unwind_Resume@plt>
    56df:	0f 0b                	ud2    
    56e1:	66 2e 0f 1f 84 00 00 	nopw   %cs:0x0(%rax,%rax,1)
    56e8:	00 00 00 
    56eb:	0f 1f 44 00 00       	nopl   0x0(%rax,%rax,1)

00000000000056f0 <_ZN50_$LT$$RF$mut$u20$W$u20$as$u20$core..fmt..Write$GT$9write_str17hb4d01cf27236e009E>:
    56f0:	50                   	push   %rax
    56f1:	48 8b 3f             	mov    (%rdi),%rdi
    56f4:	48 01 f2             	add    %rsi,%rdx
    56f7:	e8 34 ee ff ff       	callq  4530 <_ZN109_$LT$alloc..vec..Vec$LT$T$GT$$u20$as$u20$alloc..vec..SpecExtend$LT$$RF$T$C$core..slice..Iter$LT$T$GT$$GT$$GT$11spec_extend17hf251a0cfb7cf13efE>
    56fc:	31 c0                	xor    %eax,%eax
    56fe:	59                   	pop    %rcx
    56ff:	c3                   	retq   

0000000000005700 <_ZN50_$LT$$RF$mut$u20$W$u20$as$u20$core..fmt..Write$GT$9write_str17hd35f2d97f71d2e1dE>:
    5700:	53                   	push   %rbx
    5701:	48 83 ec 20          	sub    $0x20,%rsp
    5705:	48 89 d1             	mov    %rdx,%rcx
    5708:	48 89 f2             	mov    %rsi,%rdx
    570b:	48 8b 1f             	mov    (%rdi),%rbx
    570e:	48 8b 33             	mov    (%rbx),%rsi
    5711:	48 8d 7c 24 10       	lea    0x10(%rsp),%rdi
    5716:	e8 e5 25 00 00       	callq  7d00 <_ZN3std2io5Write9write_all17hbc116c971292aadfE>
    571b:	80 7c 24 10 03       	cmpb   $0x3,0x10(%rsp)
    5720:	75 04                	jne    5726 <_ZN50_$LT$$RF$mut$u20$W$u20$as$u20$core..fmt..Write$GT$9write_str17hd35f2d97f71d2e1dE+0x26>
    5722:	31 c0                	xor    %eax,%eax
    5724:	eb 24                	jmp    574a <_ZN50_$LT$$RF$mut$u20$W$u20$as$u20$core..fmt..Write$GT$9write_str17hd35f2d97f71d2e1dE+0x4a>
    5726:	0f 10 44 24 10       	movups 0x10(%rsp),%xmm0
    572b:	0f 29 04 24          	movaps %xmm0,(%rsp)
    572f:	80 7b 08 03          	cmpb   $0x3,0x8(%rbx)
    5733:	48 8d 5b 08          	lea    0x8(%rbx),%rbx
    5737:	74 08                	je     5741 <_ZN50_$LT$$RF$mut$u20$W$u20$as$u20$core..fmt..Write$GT$9write_str17hd35f2d97f71d2e1dE+0x41>
    5739:	48 89 df             	mov    %rbx,%rdi
    573c:	e8 4f f9 ff ff       	callq  5090 <_ZN4core3ptr18real_drop_in_place17h83a59a75cb801d04E>
    5741:	0f 28 04 24          	movaps (%rsp),%xmm0
    5745:	0f 11 03             	movups %xmm0,(%rbx)
    5748:	b0 01                	mov    $0x1,%al
    574a:	48 83 c4 20          	add    $0x20,%rsp
    574e:	5b                   	pop    %rbx
    574f:	c3                   	retq   
    5750:	0f 28 04 24          	movaps (%rsp),%xmm0
    5754:	0f 11 03             	movups %xmm0,(%rbx)
    5757:	48 89 c7             	mov    %rax,%rdi
    575a:	e8 51 ea ff ff       	callq  41b0 <_Unwind_Resume@plt>
    575f:	0f 0b                	ud2    
    5761:	66 2e 0f 1f 84 00 00 	nopw   %cs:0x0(%rax,%rax,1)
    5768:	00 00 00 
    576b:	0f 1f 44 00 00       	nopl   0x0(%rax,%rax,1)

0000000000005770 <_ZN58_$LT$alloc..string..String$u20$as$u20$core..fmt..Debug$GT$3fmt17hc7ee9fb2a43b7ea5E>:
    5770:	48 89 f2             	mov    %rsi,%rdx
    5773:	48 8b 07             	mov    (%rdi),%rax
    5776:	48 8b 77 10          	mov    0x10(%rdi),%rsi
    577a:	48 89 c7             	mov    %rax,%rdi
    577d:	ff 25 cd e3 02 00    	jmpq   *0x2e3cd(%rip)        # 33b50 <_GLOBAL_OFFSET_TABLE_+0x1f0>
    5783:	66 2e 0f 1f 84 00 00 	nopw   %cs:0x0(%rax,%rax,1)
    578a:	00 00 00 
    578d:	0f 1f 00             	nopl   (%rax)

0000000000005790 <_ZN5alloc4sync12Arc$LT$T$GT$9drop_slow17h0c5b5e5b773186f6E>:
    5790:	53                   	push   %rbx
    5791:	48 89 fb             	mov    %rdi,%rbx
    5794:	48 8b 3f             	mov    (%rdi),%rdi
    5797:	48 83 c7 10          	add    $0x10,%rdi
    579b:	e8 30 fa ff ff       	callq  51d0 <_ZN4core3ptr18real_drop_in_place17h915d6f9a1c0a45e7E>
    57a0:	48 8b 03             	mov    (%rbx),%rax
    57a3:	f0 48 83 68 08 01    	lock subq $0x1,0x8(%rax)
    57a9:	75 14                	jne    57bf <_ZN5alloc4sync12Arc$LT$T$GT$9drop_slow17h0c5b5e5b773186f6E+0x2f>
    57ab:	48 8b 3b             	mov    (%rbx),%rdi
    57ae:	be 50 00 00 00       	mov    $0x50,%esi
    57b3:	ba 08 00 00 00       	mov    $0x8,%edx
    57b8:	5b                   	pop    %rbx
    57b9:	ff 25 b9 e4 02 00    	jmpq   *0x2e4b9(%rip)        # 33c78 <_GLOBAL_OFFSET_TABLE_+0x318>
    57bf:	5b                   	pop    %rbx
    57c0:	c3                   	retq   
    57c1:	66 2e 0f 1f 84 00 00 	nopw   %cs:0x0(%rax,%rax,1)
    57c8:	00 00 00 
    57cb:	0f 1f 44 00 00       	nopl   0x0(%rax,%rax,1)

00000000000057d0 <_ZN5alloc4sync12Arc$LT$T$GT$9drop_slow17ha0c32ee3838644daE>:
    57d0:	41 56                	push   %r14
    57d2:	53                   	push   %rbx
    57d3:	50                   	push   %rax
    57d4:	49 89 fe             	mov    %rdi,%r14
    57d7:	48 8b 1f             	mov    (%rdi),%rbx
    57da:	48 8b 7b 10          	mov    0x10(%rbx),%rdi
    57de:	ff 15 44 e4 02 00    	callq  *0x2e444(%rip)        # 33c28 <pthread_mutex_destroy@GLIBC_2.2.5>
    57e4:	48 8b 7b 10          	mov    0x10(%rbx),%rdi
    57e8:	be 28 00 00 00       	mov    $0x28,%esi
    57ed:	ba 08 00 00 00       	mov    $0x8,%edx
    57f2:	ff 15 80 e4 02 00    	callq  *0x2e480(%rip)        # 33c78 <_GLOBAL_OFFSET_TABLE_+0x318>
    57f8:	49 8b 06             	mov    (%r14),%rax
    57fb:	f0 48 83 68 08 01    	lock subq $0x1,0x8(%rax)
    5801:	75 1a                	jne    581d <_ZN5alloc4sync12Arc$LT$T$GT$9drop_slow17ha0c32ee3838644daE+0x4d>
    5803:	49 8b 3e             	mov    (%r14),%rdi
    5806:	be 30 00 00 00       	mov    $0x30,%esi
    580b:	ba 08 00 00 00       	mov    $0x8,%edx
    5810:	48 83 c4 08          	add    $0x8,%rsp
    5814:	5b                   	pop    %rbx
    5815:	41 5e                	pop    %r14
    5817:	ff 25 5b e4 02 00    	jmpq   *0x2e45b(%rip)        # 33c78 <_GLOBAL_OFFSET_TABLE_+0x318>
    581d:	48 83 c4 08          	add    $0x8,%rsp
    5821:	5b                   	pop    %rbx
    5822:	41 5e                	pop    %r14
    5824:	c3                   	retq   
    5825:	66 2e 0f 1f 84 00 00 	nopw   %cs:0x0(%rax,%rax,1)
    582c:	00 00 00 
    582f:	90                   	nop

0000000000005830 <_ZN5alloc5alloc8box_free17h287287f638fe20d7E>:
    5830:	be 18 00 00 00       	mov    $0x18,%esi
    5835:	ba 08 00 00 00       	mov    $0x8,%edx
    583a:	ff 25 38 e4 02 00    	jmpq   *0x2e438(%rip)        # 33c78 <_GLOBAL_OFFSET_TABLE_+0x318>

0000000000005840 <_ZN5alloc5alloc8box_free17h2a75dddd895d38ecE>:
    5840:	48 89 f0             	mov    %rsi,%rax
    5843:	48 8b 76 08          	mov    0x8(%rsi),%rsi
    5847:	48 85 f6             	test   %rsi,%rsi
    584a:	74 0a                	je     5856 <_ZN5alloc5alloc8box_free17h2a75dddd895d38ecE+0x16>
    584c:	48 8b 50 10          	mov    0x10(%rax),%rdx
    5850:	ff 25 22 e4 02 00    	jmpq   *0x2e422(%rip)        # 33c78 <_GLOBAL_OFFSET_TABLE_+0x318>
    5856:	c3                   	retq   
    5857:	66 0f 1f 84 00 00 00 	nopw   0x0(%rax,%rax,1)
    585e:	00 00 

0000000000005860 <_ZN60_$LT$alloc..string..String$u20$as$u20$core..fmt..Display$GT$3fmt17hb5e83c26273451adE>:
    5860:	48 89 f2             	mov    %rsi,%rdx
    5863:	48 8b 07             	mov    (%rdi),%rax
    5866:	48 8b 77 10          	mov    0x10(%rdi),%rsi
    586a:	48 89 c7             	mov    %rax,%rdi
    586d:	ff 25 85 e2 02 00    	jmpq   *0x2e285(%rip)        # 33af8 <_GLOBAL_OFFSET_TABLE_+0x198>
    5873:	66 2e 0f 1f 84 00 00 	nopw   %cs:0x0(%rax,%rax,1)
    587a:	00 00 00 
    587d:	0f 1f 00             	nopl   (%rax)

0000000000005880 <_ZN83_$LT$alloc..boxed..Box$LT$F$GT$$u20$as$u20$core..ops..function..FnOnce$LT$A$GT$$GT$9call_once17h8c2b476dfb8616caE>:
    5880:	55                   	push   %rbp
    5881:	48 89 e5             	mov    %rsp,%rbp
    5884:	41 57                	push   %r15
    5886:	41 56                	push   %r14
    5888:	41 54                	push   %r12
    588a:	53                   	push   %rbx
    588b:	49 89 f7             	mov    %rsi,%r15
    588e:	49 89 fe             	mov    %rdi,%r14
    5891:	4c 8b 66 08          	mov    0x8(%rsi),%r12
    5895:	49 8d 44 24 0f       	lea    0xf(%r12),%rax
    589a:	48 83 e0 f0          	and    $0xfffffffffffffff0,%rax
    589e:	e8 8d e9 01 00       	callq  24230 <__rust_probestack>
    58a3:	48 29 c4             	sub    %rax,%rsp
    58a6:	48 89 e3             	mov    %rsp,%rbx
    58a9:	48 89 df             	mov    %rbx,%rdi
    58ac:	4c 89 f6             	mov    %r14,%rsi
    58af:	4c 89 e2             	mov    %r12,%rdx
    58b2:	ff 15 e8 e4 02 00    	callq  *0x2e4e8(%rip)        # 33da0 <memcpy@GLIBC_2.14>
    58b8:	48 89 df             	mov    %rbx,%rdi
    58bb:	41 ff 57 18          	callq  *0x18(%r15)
    58bf:	4d 85 e4             	test   %r12,%r12
    58c2:	74 10                	je     58d4 <_ZN83_$LT$alloc..boxed..Box$LT$F$GT$$u20$as$u20$core..ops..function..FnOnce$LT$A$GT$$GT$9call_once17h8c2b476dfb8616caE+0x54>
    58c4:	49 8b 57 10          	mov    0x10(%r15),%rdx
    58c8:	4c 89 f7             	mov    %r14,%rdi
    58cb:	4c 89 e6             	mov    %r12,%rsi
    58ce:	ff 15 a4 e3 02 00    	callq  *0x2e3a4(%rip)        # 33c78 <_GLOBAL_OFFSET_TABLE_+0x318>
    58d4:	48 8d 65 e0          	lea    -0x20(%rbp),%rsp
    58d8:	5b                   	pop    %rbx
    58d9:	41 5c                	pop    %r12
    58db:	41 5e                	pop    %r14
    58dd:	41 5f                	pop    %r15
    58df:	5d                   	pop    %rbp
    58e0:	c3                   	retq   
    58e1:	48 89 c3             	mov    %rax,%rbx
    58e4:	4c 89 f7             	mov    %r14,%rdi
    58e7:	4c 89 fe             	mov    %r15,%rsi
    58ea:	e8 51 ff ff ff       	callq  5840 <_ZN5alloc5alloc8box_free17h2a75dddd895d38ecE>
    58ef:	48 89 df             	mov    %rbx,%rdi
    58f2:	e8 b9 e8 ff ff       	callq  41b0 <_Unwind_Resume@plt>
    58f7:	0f 0b                	ud2    
    58f9:	0f 1f 80 00 00 00 00 	nopl   0x0(%rax)

0000000000005900 <_ZN68_$LT$std..thread..local..AccessError$u20$as$u20$core..fmt..Debug$GT$3fmt17habcfd9d895d88b71E>:
    5900:	53                   	push   %rbx
    5901:	48 83 ec 10          	sub    $0x10,%rsp
    5905:	48 8d 15 d8 0e 02 00 	lea    0x20ed8(%rip),%rdx        # 267e4 <_fini+0x1688>
    590c:	48 89 e3             	mov    %rsp,%rbx
    590f:	b9 0b 00 00 00       	mov    $0xb,%ecx
    5914:	48 89 df             	mov    %rbx,%rdi
    5917:	ff 15 fb e1 02 00    	callq  *0x2e1fb(%rip)        # 33b18 <_GLOBAL_OFFSET_TABLE_+0x1b8>
    591d:	48 89 df             	mov    %rbx,%rdi
    5920:	ff 15 42 e2 02 00    	callq  *0x2e242(%rip)        # 33b68 <_GLOBAL_OFFSET_TABLE_+0x208>
    5926:	48 83 c4 10          	add    $0x10,%rsp
    592a:	5b                   	pop    %rbx
    592b:	c3                   	retq   
    592c:	0f 1f 40 00          	nopl   0x0(%rax)

0000000000005930 <_ZN3std6thread5local17LocalKey$LT$T$GT$8try_with17h586aecdf442bdd9cE>:
    5930:	41 57                	push   %r15
    5932:	41 56                	push   %r14
    5934:	53                   	push   %rbx
    5935:	48 83 ec 30          	sub    $0x30,%rsp
    5939:	49 89 d7             	mov    %rdx,%r15
    593c:	48 89 f3             	mov    %rsi,%rbx
    593f:	49 89 fe             	mov    %rdi,%r14
    5942:	48 89 74 24 10       	mov    %rsi,0x10(%rsp)
    5947:	48 89 54 24 18       	mov    %rdx,0x18(%rsp)
    594c:	66 66 66 64 48 8b 04 	data16 data16 data16 mov %fs:0x0,%rax
    5953:	25 00 00 00 00 
    5958:	48 83 b8 c0 ff ff ff 	cmpq   $0x1,-0x40(%rax)
    595f:	01 
    5960:	75 09                	jne    596b <_ZN3std6thread5local17LocalKey$LT$T$GT$8try_with17h586aecdf442bdd9cE+0x3b>
    5962:	48 8d 80 c8 ff ff ff 	lea    -0x38(%rax),%rax
    5969:	eb 0a                	jmp    5975 <_ZN3std6thread5local17LocalKey$LT$T$GT$8try_with17h586aecdf442bdd9cE+0x45>
    596b:	e8 c0 00 00 00       	callq  5a30 <_ZN3std6thread5local4fast12Key$LT$T$GT$14try_initialize17hb1e5a74492746248E>
    5970:	48 85 c0             	test   %rax,%rax
    5973:	74 3c                	je     59b1 <_ZN3std6thread5local17LocalKey$LT$T$GT$8try_with17h586aecdf442bdd9cE+0x81>
    5975:	48 89 5c 24 20       	mov    %rbx,0x20(%rsp)
    597a:	4c 89 7c 24 28       	mov    %r15,0x28(%rsp)
    597f:	48 83 38 00          	cmpq   $0x0,(%rax)
    5983:	75 56                	jne    59db <_ZN3std6thread5local17LocalKey$LT$T$GT$8try_with17h586aecdf442bdd9cE+0xab>
    5985:	0f 10 40 08          	movups 0x8(%rax),%xmm0
    5989:	48 89 58 08          	mov    %rbx,0x8(%rax)
    598d:	4c 89 78 10          	mov    %r15,0x10(%rax)
    5991:	48 c7 00 00 00 00 00 	movq   $0x0,(%rax)
    5998:	41 0f 11 46 08       	movups %xmm0,0x8(%r14)
    599d:	49 c7 06 00 00 00 00 	movq   $0x0,(%r14)
    59a4:	4c 89 f0             	mov    %r14,%rax
    59a7:	48 83 c4 30          	add    $0x30,%rsp
    59ab:	5b                   	pop    %rbx
    59ac:	41 5e                	pop    %r14
    59ae:	41 5f                	pop    %r15
    59b0:	c3                   	retq   
    59b1:	49 c7 06 01 00 00 00 	movq   $0x1,(%r14)
    59b8:	48 85 db             	test   %rbx,%rbx
    59bb:	74 e7                	je     59a4 <_ZN3std6thread5local17LocalKey$LT$T$GT$8try_with17h586aecdf442bdd9cE+0x74>
    59bd:	48 89 df             	mov    %rbx,%rdi
    59c0:	41 ff 17             	callq  *(%r15)
    59c3:	49 8b 77 08          	mov    0x8(%r15),%rsi
    59c7:	48 85 f6             	test   %rsi,%rsi
    59ca:	74 d8                	je     59a4 <_ZN3std6thread5local17LocalKey$LT$T$GT$8try_with17h586aecdf442bdd9cE+0x74>
    59cc:	49 8b 57 10          	mov    0x10(%r15),%rdx
    59d0:	48 89 df             	mov    %rbx,%rdi
    59d3:	ff 15 9f e2 02 00    	callq  *0x2e29f(%rip)        # 33c78 <_GLOBAL_OFFSET_TABLE_+0x318>
    59d9:	eb c9                	jmp    59a4 <_ZN3std6thread5local17LocalKey$LT$T$GT$8try_with17h586aecdf442bdd9cE+0x74>
    59db:	48 8d 3d 6e 06 02 00 	lea    0x2066e(%rip),%rdi        # 26050 <_fini+0xef4>
    59e2:	48 8d 0d bf c7 02 00 	lea    0x2c7bf(%rip),%rcx        # 321a8 <anon.2a2a8279f82dd18d5d6ec8aaf5193350.2.llvm.9782508449811801216+0x1e0>
    59e9:	48 8d 54 24 08       	lea    0x8(%rsp),%rdx
    59ee:	be 10 00 00 00       	mov    $0x10,%esi
    59f3:	ff 15 87 e1 02 00    	callq  *0x2e187(%rip)        # 33b80 <_GLOBAL_OFFSET_TABLE_+0x220>
    59f9:	0f 0b                	ud2    
    59fb:	49 89 c6             	mov    %rax,%r14
    59fe:	48 8d 7c 24 20       	lea    0x20(%rsp),%rdi
    5a03:	eb 18                	jmp    5a1d <_ZN3std6thread5local17LocalKey$LT$T$GT$8try_with17h586aecdf442bdd9cE+0xed>
    5a05:	49 89 c6             	mov    %rax,%r14
    5a08:	48 89 df             	mov    %rbx,%rdi
    5a0b:	4c 89 fe             	mov    %r15,%rsi
    5a0e:	e8 2d fe ff ff       	callq  5840 <_ZN5alloc5alloc8box_free17h2a75dddd895d38ecE>
    5a13:	eb 0d                	jmp    5a22 <_ZN3std6thread5local17LocalKey$LT$T$GT$8try_with17h586aecdf442bdd9cE+0xf2>
    5a15:	49 89 c6             	mov    %rax,%r14
    5a18:	48 8d 7c 24 10       	lea    0x10(%rsp),%rdi
    5a1d:	e8 4e f8 ff ff       	callq  5270 <_ZN4core3ptr18real_drop_in_place17hc6fe20c54716ff31E>
    5a22:	4c 89 f7             	mov    %r14,%rdi
    5a25:	e8 86 e7 ff ff       	callq  41b0 <_Unwind_Resume@plt>
    5a2a:	0f 0b                	ud2    
    5a2c:	0f 1f 40 00          	nopl   0x0(%rax)

0000000000005a30 <_ZN3std6thread5local4fast12Key$LT$T$GT$14try_initialize17hb1e5a74492746248E>:
    5a30:	41 57                	push   %r15
    5a32:	41 56                	push   %r14
    5a34:	53                   	push   %rbx
    5a35:	66 66 66 64 48 8b 04 	data16 data16 data16 mov %fs:0x0,%rax
    5a3c:	25 00 00 00 00 
    5a41:	49 89 c6             	mov    %rax,%r14
    5a44:	0f b6 80 e0 ff ff ff 	movzbl -0x20(%rax),%eax
    5a4b:	48 85 c0             	test   %rax,%rax
    5a4e:	74 0d                	je     5a5d <_ZN3std6thread5local4fast12Key$LT$T$GT$14try_initialize17hb1e5a74492746248E+0x2d>
    5a50:	48 83 f8 01          	cmp    $0x1,%rax
    5a54:	74 4c                	je     5aa2 <_ZN3std6thread5local4fast12Key$LT$T$GT$14try_initialize17hb1e5a74492746248E+0x72>
    5a56:	31 c0                	xor    %eax,%eax
    5a58:	e9 b5 00 00 00       	jmpq   5b12 <_ZN3std6thread5local4fast12Key$LT$T$GT$14try_initialize17hb1e5a74492746248E+0xe2>
    5a5d:	48 83 3d c3 e0 02 00 	cmpq   $0x0,0x2e0c3(%rip)        # 33b28 <__cxa_thread_atexit_impl@GLIBC_2.18>
    5a64:	00 
    5a65:	74 1d                	je     5a84 <_ZN3std6thread5local4fast12Key$LT$T$GT$14try_initialize17hb1e5a74492746248E+0x54>
    5a67:	49 8d b6 c0 ff ff ff 	lea    -0x40(%r14),%rsi
    5a6e:	48 8d 3d 9b 01 00 00 	lea    0x19b(%rip),%rdi        # 5c10 <_ZN3std6thread5local4fast13destroy_value17hae61806ae9554c96E>
    5a75:	48 8d 15 ac e5 02 00 	lea    0x2e5ac(%rip),%rdx        # 34028 <_rust_extern_with_linkage___dso_handle>
    5a7c:	ff 15 a6 e0 02 00    	callq  *0x2e0a6(%rip)        # 33b28 <__cxa_thread_atexit_impl@GLIBC_2.18>
    5a82:	eb 13                	jmp    5a97 <_ZN3std6thread5local4fast12Key$LT$T$GT$14try_initialize17hb1e5a74492746248E+0x67>
    5a84:	49 8d be c0 ff ff ff 	lea    -0x40(%r14),%rdi
    5a8b:	48 8d 35 7e 01 00 00 	lea    0x17e(%rip),%rsi        # 5c10 <_ZN3std6thread5local4fast13destroy_value17hae61806ae9554c96E>
    5a92:	e8 49 51 00 00       	callq  abe0 <_ZN3std10sys_common12thread_local22register_dtor_fallback17hc48b2322574be81aE>
    5a97:	4c 89 f0             	mov    %r14,%rax
    5a9a:	41 c6 86 e0 ff ff ff 	movb   $0x1,-0x20(%r14)
    5aa1:	01 
    5aa2:	4c 89 f0             	mov    %r14,%rax
    5aa5:	66 41 0f 6f 86 d0 ff 	movdqa -0x30(%r14),%xmm0
    5aac:	ff ff 
    5aae:	b9 01 00 00 00       	mov    $0x1,%ecx
    5ab3:	49 83 be c0 ff ff ff 	cmpq   $0x0,-0x40(%r14)
    5aba:	00 
    5abb:	66 48 0f 6e c9       	movq   %rcx,%xmm1
    5ac0:	66 41 0f 7f 8e c0 ff 	movdqa %xmm1,-0x40(%r14)
    5ac7:	ff ff 
    5ac9:	66 0f ef c9          	pxor   %xmm1,%xmm1
    5acd:	66 41 0f 7f 8e d0 ff 	movdqa %xmm1,-0x30(%r14)
    5ad4:	ff ff 
    5ad6:	74 30                	je     5b08 <_ZN3std6thread5local4fast12Key$LT$T$GT$14try_initialize17hb1e5a74492746248E+0xd8>
    5ad8:	66 48 0f 7e c3       	movq   %xmm0,%rbx
    5add:	48 85 db             	test   %rbx,%rbx
    5ae0:	74 26                	je     5b08 <_ZN3std6thread5local4fast12Key$LT$T$GT$14try_initialize17hb1e5a74492746248E+0xd8>
    5ae2:	66 0f 70 c0 4e       	pshufd $0x4e,%xmm0,%xmm0
    5ae7:	66 49 0f 7e c7       	movq   %xmm0,%r15
    5aec:	48 89 df             	mov    %rbx,%rdi
    5aef:	41 ff 17             	callq  *(%r15)
    5af2:	49 8b 77 08          	mov    0x8(%r15),%rsi
    5af6:	48 85 f6             	test   %rsi,%rsi
    5af9:	74 0d                	je     5b08 <_ZN3std6thread5local4fast12Key$LT$T$GT$14try_initialize17hb1e5a74492746248E+0xd8>
    5afb:	49 8b 57 10          	mov    0x10(%r15),%rdx
    5aff:	48 89 df             	mov    %rbx,%rdi
    5b02:	ff 15 70 e1 02 00    	callq  *0x2e170(%rip)        # 33c78 <_GLOBAL_OFFSET_TABLE_+0x318>
    5b08:	4c 89 f0             	mov    %r14,%rax
    5b0b:	49 8d 86 c8 ff ff ff 	lea    -0x38(%r14),%rax
    5b12:	5b                   	pop    %rbx
    5b13:	41 5e                	pop    %r14
    5b15:	41 5f                	pop    %r15
    5b17:	c3                   	retq   
    5b18:	49 89 c6             	mov    %rax,%r14
    5b1b:	48 89 df             	mov    %rbx,%rdi
    5b1e:	4c 89 fe             	mov    %r15,%rsi
    5b21:	e8 1a fd ff ff       	callq  5840 <_ZN5alloc5alloc8box_free17h2a75dddd895d38ecE>
    5b26:	4c 89 f7             	mov    %r14,%rdi
    5b29:	e8 82 e6 ff ff       	callq  41b0 <_Unwind_Resume@plt>
    5b2e:	0f 0b                	ud2    

0000000000005b30 <_ZN3std6thread5local4fast12Key$LT$T$GT$14try_initialize17hb77a76b89177bcdfE>:
    5b30:	53                   	push   %rbx
    5b31:	48 83 ec 30          	sub    $0x30,%rsp
    5b35:	66 66 66 64 48 8b 04 	data16 data16 data16 mov %fs:0x0,%rax
    5b3c:	25 00 00 00 00 
    5b41:	48 89 c3             	mov    %rax,%rbx
    5b44:	0f b6 80 a8 ff ff ff 	movzbl -0x58(%rax),%eax
    5b4b:	48 85 c0             	test   %rax,%rax
    5b4e:	74 0d                	je     5b5d <_ZN3std6thread5local4fast12Key$LT$T$GT$14try_initialize17hb77a76b89177bcdfE+0x2d>
    5b50:	48 83 f8 01          	cmp    $0x1,%rax
    5b54:	74 4b                	je     5ba1 <_ZN3std6thread5local4fast12Key$LT$T$GT$14try_initialize17hb77a76b89177bcdfE+0x71>
    5b56:	31 c0                	xor    %eax,%eax
    5b58:	e9 a5 00 00 00       	jmpq   5c02 <_ZN3std6thread5local4fast12Key$LT$T$GT$14try_initialize17hb77a76b89177bcdfE+0xd2>
    5b5d:	48 83 3d c3 df 02 00 	cmpq   $0x0,0x2dfc3(%rip)        # 33b28 <__cxa_thread_atexit_impl@GLIBC_2.18>
    5b64:	00 
    5b65:	74 1d                	je     5b84 <_ZN3std6thread5local4fast12Key$LT$T$GT$14try_initialize17hb77a76b89177bcdfE+0x54>
    5b67:	48 8d b3 80 ff ff ff 	lea    -0x80(%rbx),%rsi
    5b6e:	48 8d 3d 0b 01 00 00 	lea    0x10b(%rip),%rdi        # 5c80 <_ZN3std6thread5local4fast13destroy_value17hd9d3b456299fda86E>
    5b75:	48 8d 15 ac e4 02 00 	lea    0x2e4ac(%rip),%rdx        # 34028 <_rust_extern_with_linkage___dso_handle>
    5b7c:	ff 15 a6 df 02 00    	callq  *0x2dfa6(%rip)        # 33b28 <__cxa_thread_atexit_impl@GLIBC_2.18>
    5b82:	eb 13                	jmp    5b97 <_ZN3std6thread5local4fast12Key$LT$T$GT$14try_initialize17hb77a76b89177bcdfE+0x67>
    5b84:	48 8d bb 80 ff ff ff 	lea    -0x80(%rbx),%rdi
    5b8b:	48 8d 35 ee 00 00 00 	lea    0xee(%rip),%rsi        # 5c80 <_ZN3std6thread5local4fast13destroy_value17hd9d3b456299fda86E>
    5b92:	e8 49 50 00 00       	callq  abe0 <_ZN3std10sys_common12thread_local22register_dtor_fallback17hc48b2322574be81aE>
    5b97:	48 89 d8             	mov    %rbx,%rax
    5b9a:	c6 83 a8 ff ff ff 01 	movb   $0x1,-0x58(%rbx)
    5ba1:	48 89 d8             	mov    %rbx,%rax
    5ba4:	66 0f 6f 83 80 ff ff 	movdqa -0x80(%rbx),%xmm0
    5bab:	ff 
    5bac:	0f 28 8b 90 ff ff ff 	movaps -0x70(%rbx),%xmm1
    5bb3:	0f 28 15 56 04 02 00 	movaps 0x20456(%rip),%xmm2        # 26010 <_fini+0xeb4>
    5bba:	0f 29 93 80 ff ff ff 	movaps %xmm2,-0x80(%rbx)
    5bc1:	48 8b 83 a0 ff ff ff 	mov    -0x60(%rbx),%rax
    5bc8:	0f 11 4c 24 18       	movups %xmm1,0x18(%rsp)
    5bcd:	f3 0f 7f 44 24 08    	movdqu %xmm0,0x8(%rsp)
    5bd3:	48 89 44 24 28       	mov    %rax,0x28(%rsp)
    5bd8:	66 0f 70 c0 4e       	pshufd $0x4e,%xmm0,%xmm0
    5bdd:	66 48 0f 7e c1       	movq   %xmm0,%rcx
    5be2:	f6 c1 02             	test   $0x2,%cl
    5be5:	75 11                	jne    5bf8 <_ZN3std6thread5local4fast12Key$LT$T$GT$14try_initialize17hb77a76b89177bcdfE+0xc8>
    5be7:	f0 48 83 28 01       	lock subq $0x1,(%rax)
    5bec:	75 0a                	jne    5bf8 <_ZN3std6thread5local4fast12Key$LT$T$GT$14try_initialize17hb77a76b89177bcdfE+0xc8>
    5bee:	48 8d 7c 24 28       	lea    0x28(%rsp),%rdi
    5bf3:	e8 98 fb ff ff       	callq  5790 <_ZN5alloc4sync12Arc$LT$T$GT$9drop_slow17h0c5b5e5b773186f6E>
    5bf8:	48 89 d8             	mov    %rbx,%rax
    5bfb:	48 8d 83 80 ff ff ff 	lea    -0x80(%rbx),%rax
    5c02:	48 83 c4 30          	add    $0x30,%rsp
    5c06:	5b                   	pop    %rbx
    5c07:	c3                   	retq   
    5c08:	0f 1f 84 00 00 00 00 	nopl   0x0(%rax,%rax,1)
    5c0f:	00 

0000000000005c10 <_ZN3std6thread5local4fast13destroy_value17hae61806ae9554c96E>:
    5c10:	41 57                	push   %r15
    5c12:	41 56                	push   %r14
    5c14:	53                   	push   %rbx
    5c15:	48 8b 5f 10          	mov    0x10(%rdi),%rbx
    5c19:	4c 8b 77 18          	mov    0x18(%rdi),%r14
    5c1d:	0f 57 c0             	xorps  %xmm0,%xmm0
    5c20:	48 83 3f 00          	cmpq   $0x0,(%rdi)
    5c24:	0f 11 07             	movups %xmm0,(%rdi)
    5c27:	c6 47 20 02          	movb   $0x2,0x20(%rdi)
    5c2b:	74 26                	je     5c53 <_ZN3std6thread5local4fast13destroy_value17hae61806ae9554c96E+0x43>
    5c2d:	48 85 db             	test   %rbx,%rbx
    5c30:	74 21                	je     5c53 <_ZN3std6thread5local4fast13destroy_value17hae61806ae9554c96E+0x43>
    5c32:	48 89 df             	mov    %rbx,%rdi
    5c35:	41 ff 16             	callq  *(%r14)
    5c38:	49 8b 76 08          	mov    0x8(%r14),%rsi
    5c3c:	48 85 f6             	test   %rsi,%rsi
    5c3f:	74 12                	je     5c53 <_ZN3std6thread5local4fast13destroy_value17hae61806ae9554c96E+0x43>
    5c41:	49 8b 56 10          	mov    0x10(%r14),%rdx
    5c45:	48 89 df             	mov    %rbx,%rdi
    5c48:	5b                   	pop    %rbx
    5c49:	41 5e                	pop    %r14
    5c4b:	41 5f                	pop    %r15
    5c4d:	ff 25 25 e0 02 00    	jmpq   *0x2e025(%rip)        # 33c78 <_GLOBAL_OFFSET_TABLE_+0x318>
    5c53:	5b                   	pop    %rbx
    5c54:	41 5e                	pop    %r14
    5c56:	41 5f                	pop    %r15
    5c58:	c3                   	retq   
    5c59:	49 89 c7             	mov    %rax,%r15
    5c5c:	48 89 df             	mov    %rbx,%rdi
    5c5f:	4c 89 f6             	mov    %r14,%rsi
    5c62:	e8 d9 fb ff ff       	callq  5840 <_ZN5alloc5alloc8box_free17h2a75dddd895d38ecE>
    5c67:	4c 89 ff             	mov    %r15,%rdi
    5c6a:	e8 41 e5 ff ff       	callq  41b0 <_Unwind_Resume@plt>
    5c6f:	0f 0b                	ud2    
    5c71:	66 2e 0f 1f 84 00 00 	nopw   %cs:0x0(%rax,%rax,1)
    5c78:	00 00 00 
    5c7b:	0f 1f 44 00 00       	nopl   0x0(%rax,%rax,1)

0000000000005c80 <_ZN3std6thread5local4fast13destroy_value17hd9d3b456299fda86E>:
    5c80:	48 83 ec 58          	sub    $0x58,%rsp
    5c84:	0f 10 07             	movups (%rdi),%xmm0
    5c87:	0f 10 4f 10          	movups 0x10(%rdi),%xmm1
    5c8b:	0f 28 15 8e 03 02 00 	movaps 0x2038e(%rip),%xmm2        # 26020 <_fini+0xec4>
    5c92:	0f 11 17             	movups %xmm2,(%rdi)
    5c95:	48 8b 47 20          	mov    0x20(%rdi),%rax
    5c99:	0f 11 44 24 30       	movups %xmm0,0x30(%rsp)
    5c9e:	0f 11 4c 24 40       	movups %xmm1,0x40(%rsp)
    5ca3:	48 89 44 24 50       	mov    %rax,0x50(%rsp)
    5ca8:	c6 47 28 02          	movb   $0x2,0x28(%rdi)
    5cac:	0f 10 44 24 30       	movups 0x30(%rsp),%xmm0
    5cb1:	0f 10 4c 24 40       	movups 0x40(%rsp),%xmm1
    5cb6:	0f 29 04 24          	movaps %xmm0,(%rsp)
    5cba:	48 8b 44 24 50       	mov    0x50(%rsp),%rax
    5cbf:	48 89 44 24 20       	mov    %rax,0x20(%rsp)
    5cc4:	0f 29 4c 24 10       	movaps %xmm1,0x10(%rsp)
    5cc9:	f6 44 24 08 02       	testb  $0x2,0x8(%rsp)
    5cce:	75 16                	jne    5ce6 <_ZN3std6thread5local4fast13destroy_value17hd9d3b456299fda86E+0x66>
    5cd0:	48 8b 44 24 20       	mov    0x20(%rsp),%rax
    5cd5:	f0 48 83 28 01       	lock subq $0x1,(%rax)
    5cda:	75 0a                	jne    5ce6 <_ZN3std6thread5local4fast13destroy_value17hd9d3b456299fda86E+0x66>
    5cdc:	48 8d 7c 24 20       	lea    0x20(%rsp),%rdi
    5ce1:	e8 aa fa ff ff       	callq  5790 <_ZN5alloc4sync12Arc$LT$T$GT$9drop_slow17h0c5b5e5b773186f6E>
    5ce6:	48 83 c4 58          	add    $0x58,%rsp
    5cea:	c3                   	retq   
    5ceb:	0f 1f 44 00 00       	nopl   0x0(%rax,%rax,1)

0000000000005cf0 <_ZN3std6thread4park17h83e14ba7d6a8b3b2E>:
    5cf0:	41 57                	push   %r15
    5cf2:	41 56                	push   %r14
    5cf4:	53                   	push   %rbx
    5cf5:	48 81 ec c0 00 00 00 	sub    $0xc0,%rsp
    5cfc:	66 66 66 64 48 8b 04 	data16 data16 data16 mov %fs:0x0,%rax
    5d03:	25 00 00 00 00 
    5d08:	49 89 c6             	mov    %rax,%r14
    5d0b:	48 83 b8 88 ff ff ff 	cmpq   $0x3,-0x78(%rax)
    5d12:	03 
    5d13:	0f 84 ad 01 00 00    	je     5ec6 <_ZN3std6thread4park17h83e14ba7d6a8b3b2E+0x1d6>
    5d19:	48 8d b8 80 ff ff ff 	lea    -0x80(%rax),%rdi
    5d20:	e8 cb 49 00 00       	callq  a6f0 <_ZN3std10sys_common11thread_info10ThreadInfo4with28_$u7b$$u7b$closure$u7d$$u7d$17h3b58d3973cc363adE>
    5d25:	48 89 c1             	mov    %rax,%rcx
    5d28:	48 89 04 24          	mov    %rax,(%rsp)
    5d2c:	31 d2                	xor    %edx,%edx
    5d2e:	b8 02 00 00 00       	mov    $0x2,%eax
    5d33:	f0 48 0f b1 51 28    	lock cmpxchg %rdx,0x28(%rcx)
    5d39:	0f 84 67 01 00 00    	je     5ea6 <_ZN3std6thread4park17h83e14ba7d6a8b3b2E+0x1b6>
    5d3f:	48 8b 1c 24          	mov    (%rsp),%rbx
    5d43:	48 8b 7b 30          	mov    0x30(%rbx),%rdi
    5d47:	ff 15 83 e2 02 00    	callq  *0x2e283(%rip)        # 33fd0 <pthread_mutex_lock@GLIBC_2.2.5>
    5d4d:	4c 89 f0             	mov    %r14,%rax
    5d50:	49 83 be e8 ff ff ff 	cmpq   $0x1,-0x18(%r14)
    5d57:	01 
    5d58:	75 0c                	jne    5d66 <_ZN3std6thread4park17h83e14ba7d6a8b3b2E+0x76>
    5d5a:	4c 89 f0             	mov    %r14,%rax
    5d5d:	49 8b 96 f0 ff ff ff 	mov    -0x10(%r14),%rdx
    5d64:	eb 1b                	jmp    5d81 <_ZN3std6thread4park17h83e14ba7d6a8b3b2E+0x91>
    5d66:	4c 89 f0             	mov    %r14,%rax
    5d69:	49 c7 86 e8 ff ff ff 	movq   $0x1,-0x18(%r14)
    5d70:	01 00 00 00 
    5d74:	49 c7 86 f0 ff ff ff 	movq   $0x0,-0x10(%r14)
    5d7b:	00 00 00 00 
    5d7f:	31 d2                	xor    %edx,%edx
    5d81:	48 8d 4b 30          	lea    0x30(%rbx),%rcx
    5d85:	4c 89 f0             	mov    %r14,%rax
    5d88:	49 89 96 f0 ff ff ff 	mov    %rdx,-0x10(%r14)
    5d8f:	48 85 d2             	test   %rdx,%rdx
    5d92:	0f 95 c0             	setne  %al
    5d95:	8a 53 38             	mov    0x38(%rbx),%dl
    5d98:	84 d2                	test   %dl,%dl
    5d9a:	0f 85 97 01 00 00    	jne    5f37 <_ZN3std6thread4park17h83e14ba7d6a8b3b2E+0x247>
    5da0:	48 89 4c 24 08       	mov    %rcx,0x8(%rsp)
    5da5:	88 44 24 10          	mov    %al,0x10(%rsp)
    5da9:	b9 01 00 00 00       	mov    $0x1,%ecx
    5dae:	31 c0                	xor    %eax,%eax
    5db0:	f0 48 0f b1 4b 28    	lock cmpxchg %rcx,0x28(%rbx)
    5db6:	75 7d                	jne    5e35 <_ZN3std6thread4park17h83e14ba7d6a8b3b2E+0x145>
    5db8:	45 31 ff             	xor    %r15d,%r15d
    5dbb:	48 8b 1d c6 dd 02 00 	mov    0x2ddc6(%rip),%rbx        # 33b88 <pthread_cond_wait@GLIBC_2.3.2>
    5dc2:	66 2e 0f 1f 84 00 00 	nopw   %cs:0x0(%rax,%rax,1)
    5dc9:	00 00 00 
    5dcc:	0f 1f 40 00          	nopl   0x0(%rax)
    5dd0:	48 8b 0c 24          	mov    (%rsp),%rcx
    5dd4:	48 8b 44 24 08       	mov    0x8(%rsp),%rax
    5dd9:	0f b6 54 24 10       	movzbl 0x10(%rsp),%edx
    5dde:	48 89 44 24 18       	mov    %rax,0x18(%rsp)
    5de3:	88 54 24 20          	mov    %dl,0x20(%rsp)
    5de7:	48 8b 30             	mov    (%rax),%rsi
    5dea:	31 c0                	xor    %eax,%eax
    5dec:	f0 48 0f b1 71 48    	lock cmpxchg %rsi,0x48(%rcx)
    5df2:	74 09                	je     5dfd <_ZN3std6thread4park17h83e14ba7d6a8b3b2E+0x10d>
    5df4:	48 39 f0             	cmp    %rsi,%rax
    5df7:	0f 85 f7 00 00 00    	jne    5ef4 <_ZN3std6thread4park17h83e14ba7d6a8b3b2E+0x204>
    5dfd:	48 8b 79 40          	mov    0x40(%rcx),%rdi
    5e01:	ff d3                	callq  *%rbx
    5e03:	48 8b 44 24 18       	mov    0x18(%rsp),%rax
    5e08:	0f b6 50 08          	movzbl 0x8(%rax),%edx
    5e0c:	0f b6 4c 24 20       	movzbl 0x20(%rsp),%ecx
    5e11:	84 d2                	test   %dl,%dl
    5e13:	0f 85 f5 00 00 00    	jne    5f0e <_ZN3std6thread4park17h83e14ba7d6a8b3b2E+0x21e>
    5e19:	48 89 44 24 08       	mov    %rax,0x8(%rsp)
    5e1e:	88 4c 24 10          	mov    %cl,0x10(%rsp)
    5e22:	48 8b 0c 24          	mov    (%rsp),%rcx
    5e26:	b8 02 00 00 00       	mov    $0x2,%eax
    5e2b:	f0 4c 0f b1 79 28    	lock cmpxchg %r15,0x28(%rcx)
    5e31:	75 9d                	jne    5dd0 <_ZN3std6thread4park17h83e14ba7d6a8b3b2E+0xe0>
    5e33:	eb 23                	jmp    5e58 <_ZN3std6thread4park17h83e14ba7d6a8b3b2E+0x168>
    5e35:	48 83 f8 02          	cmp    $0x2,%rax
    5e39:	0f 85 21 01 00 00    	jne    5f60 <_ZN3std6thread4park17h83e14ba7d6a8b3b2E+0x270>
    5e3f:	48 8b 04 24          	mov    (%rsp),%rax
    5e43:	31 c9                	xor    %ecx,%ecx
    5e45:	48 87 48 28          	xchg   %rcx,0x28(%rax)
    5e49:	48 89 4c 24 48       	mov    %rcx,0x48(%rsp)
    5e4e:	48 83 f9 02          	cmp    $0x2,%rcx
    5e52:	0f 85 22 01 00 00    	jne    5f7a <_ZN3std6thread4park17h83e14ba7d6a8b3b2E+0x28a>
    5e58:	48 8b 4c 24 08       	mov    0x8(%rsp),%rcx
    5e5d:	80 7c 24 10 00       	cmpb   $0x0,0x10(%rsp)
    5e62:	75 39                	jne    5e9d <_ZN3std6thread4park17h83e14ba7d6a8b3b2E+0x1ad>
    5e64:	4c 89 f0             	mov    %r14,%rax
    5e67:	49 83 be e8 ff ff ff 	cmpq   $0x1,-0x18(%r14)
    5e6e:	01 
    5e6f:	75 13                	jne    5e84 <_ZN3std6thread4park17h83e14ba7d6a8b3b2E+0x194>
    5e71:	4c 89 f0             	mov    %r14,%rax
    5e74:	49 83 be f0 ff ff ff 	cmpq   $0x0,-0x10(%r14)
    5e7b:	00 
    5e7c:	74 1f                	je     5e9d <_ZN3std6thread4park17h83e14ba7d6a8b3b2E+0x1ad>
    5e7e:	c6 41 08 01          	movb   $0x1,0x8(%rcx)
    5e82:	eb 19                	jmp    5e9d <_ZN3std6thread4park17h83e14ba7d6a8b3b2E+0x1ad>
    5e84:	4c 89 f0             	mov    %r14,%rax
    5e87:	49 c7 86 e8 ff ff ff 	movq   $0x1,-0x18(%r14)
    5e8e:	01 00 00 00 
    5e92:	49 c7 86 f0 ff ff ff 	movq   $0x0,-0x10(%r14)
    5e99:	00 00 00 00 
    5e9d:	48 8b 39             	mov    (%rcx),%rdi
    5ea0:	ff 15 5a df 02 00    	callq  *0x2df5a(%rip)        # 33e00 <pthread_mutex_unlock@GLIBC_2.2.5>
    5ea6:	48 8b 04 24          	mov    (%rsp),%rax
    5eaa:	f0 48 83 28 01       	lock subq $0x1,(%rax)
    5eaf:	75 08                	jne    5eb9 <_ZN3std6thread4park17h83e14ba7d6a8b3b2E+0x1c9>
    5eb1:	48 89 e7             	mov    %rsp,%rdi
    5eb4:	e8 d7 f8 ff ff       	callq  5790 <_ZN5alloc4sync12Arc$LT$T$GT$9drop_slow17h0c5b5e5b773186f6E>
    5eb9:	48 81 c4 c0 00 00 00 	add    $0xc0,%rsp
    5ec0:	5b                   	pop    %rbx
    5ec1:	41 5e                	pop    %r14
    5ec3:	41 5f                	pop    %r15
    5ec5:	c3                   	retq   
    5ec6:	e8 65 fc ff ff       	callq  5b30 <_ZN3std6thread5local4fast12Key$LT$T$GT$14try_initialize17hb77a76b89177bcdfE>
    5ecb:	48 89 c7             	mov    %rax,%rdi
    5ece:	48 85 c0             	test   %rax,%rax
    5ed1:	0f 85 49 fe ff ff    	jne    5d20 <_ZN3std6thread4park17h83e14ba7d6a8b3b2E+0x30>
    5ed7:	48 c7 44 24 18 00 00 	movq   $0x0,0x18(%rsp)
    5ede:	00 00 
    5ee0:	48 8d 3d 4e 09 02 00 	lea    0x2094e(%rip),%rdi        # 26835 <_fini+0x16d9>
    5ee7:	be 5e 00 00 00       	mov    $0x5e,%esi
    5eec:	ff 15 56 de 02 00    	callq  *0x2de56(%rip)        # 33d48 <_GLOBAL_OFFSET_TABLE_+0x3e8>
    5ef2:	eb 41                	jmp    5f35 <_ZN3std6thread4park17h83e14ba7d6a8b3b2E+0x245>
    5ef4:	48 8d 3d 9b 0c 02 00 	lea    0x20c9b(%rip),%rdi        # 26b96 <_fini+0x1a3a>
    5efb:	48 8d 15 06 c6 02 00 	lea    0x2c606(%rip),%rdx        # 32508 <anon.2a2a8279f82dd18d5d6ec8aaf5193350.2.llvm.9782508449811801216+0x540>
    5f02:	be 36 00 00 00       	mov    $0x36,%esi
    5f07:	e8 44 5e 00 00       	callq  bd50 <_ZN3std9panicking11begin_panic17h08f1408df91fcb1bE>
    5f0c:	eb 27                	jmp    5f35 <_ZN3std6thread4park17h83e14ba7d6a8b3b2E+0x245>
    5f0e:	48 89 44 24 18       	mov    %rax,0x18(%rsp)
    5f13:	88 4c 24 20          	mov    %cl,0x20(%rsp)
    5f17:	48 8d 3d c5 06 02 00 	lea    0x206c5(%rip),%rdi        # 265e3 <_fini+0x1487>
    5f1e:	48 8d 0d 03 c3 02 00 	lea    0x2c303(%rip),%rcx        # 32228 <anon.2a2a8279f82dd18d5d6ec8aaf5193350.2.llvm.9782508449811801216+0x260>
    5f25:	48 8d 54 24 18       	lea    0x18(%rsp),%rdx
    5f2a:	be 2b 00 00 00       	mov    $0x2b,%esi
    5f2f:	ff 15 4b dc 02 00    	callq  *0x2dc4b(%rip)        # 33b80 <_GLOBAL_OFFSET_TABLE_+0x220>
    5f35:	0f 0b                	ud2    
    5f37:	48 89 4c 24 18       	mov    %rcx,0x18(%rsp)
    5f3c:	88 44 24 20          	mov    %al,0x20(%rsp)
    5f40:	48 8d 3d 9c 06 02 00 	lea    0x2069c(%rip),%rdi        # 265e3 <_fini+0x1487>
    5f47:	48 8d 0d da c2 02 00 	lea    0x2c2da(%rip),%rcx        # 32228 <anon.2a2a8279f82dd18d5d6ec8aaf5193350.2.llvm.9782508449811801216+0x260>
    5f4e:	48 8d 54 24 18       	lea    0x18(%rsp),%rdx
    5f53:	be 2b 00 00 00       	mov    $0x2b,%esi
    5f58:	ff 15 22 dc 02 00    	callq  *0x2dc22(%rip)        # 33b80 <_GLOBAL_OFFSET_TABLE_+0x220>
    5f5e:	eb d5                	jmp    5f35 <_ZN3std6thread4park17h83e14ba7d6a8b3b2E+0x245>
    5f60:	48 8d 3d 44 09 02 00 	lea    0x20944(%rip),%rdi        # 268ab <_fini+0x174f>
    5f67:	48 8d 15 62 c3 02 00 	lea    0x2c362(%rip),%rdx        # 322d0 <anon.2a2a8279f82dd18d5d6ec8aaf5193350.2.llvm.9782508449811801216+0x308>
    5f6e:	be 17 00 00 00       	mov    $0x17,%esi
    5f73:	e8 d8 5d 00 00       	callq  bd50 <_ZN3std9panicking11begin_panic17h08f1408df91fcb1bE>
    5f78:	eb bb                	jmp    5f35 <_ZN3std6thread4park17h83e14ba7d6a8b3b2E+0x245>
    5f7a:	48 8d 44 24 48       	lea    0x48(%rsp),%rax
    5f7f:	48 89 44 24 50       	mov    %rax,0x50(%rsp)
    5f84:	48 8d 05 d5 06 02 00 	lea    0x206d5(%rip),%rax        # 26660 <_fini+0x1504>
    5f8b:	48 89 44 24 58       	mov    %rax,0x58(%rsp)
    5f90:	48 8d 05 51 c3 02 00 	lea    0x2c351(%rip),%rax        # 322e8 <anon.2a2a8279f82dd18d5d6ec8aaf5193350.2.llvm.9782508449811801216+0x320>
    5f97:	48 89 44 24 18       	mov    %rax,0x18(%rsp)
    5f9c:	48 c7 44 24 20 01 00 	movq   $0x1,0x20(%rsp)
    5fa3:	00 00 
    5fa5:	48 c7 44 24 28 00 00 	movq   $0x0,0x28(%rsp)
    5fac:	00 00 
    5fae:	48 c7 44 24 38 08 00 	movq   $0x8,0x38(%rsp)
    5fb5:	00 00 
    5fb7:	48 c7 44 24 40 00 00 	movq   $0x0,0x40(%rsp)
    5fbe:	00 00 
    5fc0:	48 8d 44 24 50       	lea    0x50(%rsp),%rax
    5fc5:	48 89 44 24 60       	mov    %rax,0x60(%rsp)
    5fca:	48 8d 05 bf e6 ff ff 	lea    -0x1941(%rip),%rax        # 4690 <_ZN42_$LT$$RF$T$u20$as$u20$core..fmt..Debug$GT$3fmt17h17c9c1114dc2d657E>
    5fd1:	48 89 44 24 68       	mov    %rax,0x68(%rsp)
    5fd6:	48 8d 4c 24 58       	lea    0x58(%rsp),%rcx
    5fdb:	48 89 4c 24 70       	mov    %rcx,0x70(%rsp)
    5fe0:	48 89 44 24 78       	mov    %rax,0x78(%rsp)
    5fe5:	48 8d 44 24 18       	lea    0x18(%rsp),%rax
    5fea:	48 89 84 24 80 00 00 	mov    %rax,0x80(%rsp)
    5ff1:	00 
    5ff2:	48 8d 05 37 bb 01 00 	lea    0x1bb37(%rip),%rax        # 21b30 <_ZN57_$LT$core..fmt..Arguments$u20$as$u20$core..fmt..Debug$GT$3fmt17h32f57fddeb0ce687E>
    5ff9:	48 89 84 24 88 00 00 	mov    %rax,0x88(%rsp)
    6000:	00 
    6001:	48 8d 05 50 c1 02 00 	lea    0x2c150(%rip),%rax        # 32158 <anon.2a2a8279f82dd18d5d6ec8aaf5193350.2.llvm.9782508449811801216+0x190>
    6008:	48 89 84 24 90 00 00 	mov    %rax,0x90(%rsp)
    600f:	00 
    6010:	48 c7 84 24 98 00 00 	movq   $0x3,0x98(%rsp)
    6017:	00 03 00 00 00 
    601c:	48 c7 84 24 a0 00 00 	movq   $0x0,0xa0(%rsp)
    6023:	00 00 00 00 00 
    6028:	48 8d 44 24 60       	lea    0x60(%rsp),%rax
    602d:	48 89 84 24 b0 00 00 	mov    %rax,0xb0(%rsp)
    6034:	00 
    6035:	48 c7 84 24 b8 00 00 	movq   $0x3,0xb8(%rsp)
    603c:	00 03 00 00 00 
    6041:	48 8d 35 b0 c2 02 00 	lea    0x2c2b0(%rip),%rsi        # 322f8 <anon.2a2a8279f82dd18d5d6ec8aaf5193350.2.llvm.9782508449811801216+0x330>
    6048:	48 8d bc 24 90 00 00 	lea    0x90(%rsp),%rdi
    604f:	00 
    6050:	ff 15 0a dc 02 00    	callq  *0x2dc0a(%rip)        # 33c60 <_GLOBAL_OFFSET_TABLE_+0x300>
    6056:	e9 da fe ff ff       	jmpq   5f35 <_ZN3std6thread4park17h83e14ba7d6a8b3b2E+0x245>
    605b:	48 89 c3             	mov    %rax,%rbx
    605e:	48 8d 7c 24 18       	lea    0x18(%rsp),%rdi
    6063:	e8 48 ed ff ff       	callq  4db0 <_ZN4core3ptr18real_drop_in_place17h2916d408eb15510bE>
    6068:	eb 30                	jmp    609a <_ZN3std6thread4park17h83e14ba7d6a8b3b2E+0x3aa>
    606a:	48 89 c3             	mov    %rax,%rbx
    606d:	48 8d 7c 24 08       	lea    0x8(%rsp),%rdi
    6072:	eb 19                	jmp    608d <_ZN3std6thread4park17h83e14ba7d6a8b3b2E+0x39d>
    6074:	eb 00                	jmp    6076 <_ZN3std6thread4park17h83e14ba7d6a8b3b2E+0x386>
    6076:	48 89 c3             	mov    %rax,%rbx
    6079:	48 8d 7c 24 18       	lea    0x18(%rsp),%rdi
    607e:	e8 4d ed ff ff       	callq  4dd0 <_ZN4core3ptr18real_drop_in_place17h34a07279ddef2878E>
    6083:	eb 0d                	jmp    6092 <_ZN3std6thread4park17h83e14ba7d6a8b3b2E+0x3a2>
    6085:	48 89 c3             	mov    %rax,%rbx
    6088:	48 8d 7c 24 18       	lea    0x18(%rsp),%rdi
    608d:	e8 7e ec ff ff       	callq  4d10 <_ZN4core3ptr18real_drop_in_place17h212e4d1307444050E>
    6092:	48 89 e7             	mov    %rsp,%rdi
    6095:	e8 c6 f1 ff ff       	callq  5260 <_ZN4core3ptr18real_drop_in_place17hb58585ba83139501E>
    609a:	48 89 df             	mov    %rbx,%rdi
    609d:	e8 0e e1 ff ff       	callq  41b0 <_Unwind_Resume@plt>
    60a2:	0f 0b                	ud2    
    60a4:	66 2e 0f 1f 84 00 00 	nopw   %cs:0x0(%rax,%rax,1)
    60ab:	00 00 00 
    60ae:	66 90                	xchg   %ax,%ax

00000000000060b0 <_ZN3std6thread6Thread3new17hcea73d56c21216cfE>:
    60b0:	41 57                	push   %r15
    60b2:	41 56                	push   %r14
    60b4:	41 55                	push   %r13
    60b6:	41 54                	push   %r12
    60b8:	53                   	push   %rbx
    60b9:	48 83 ec 60          	sub    $0x60,%rsp
    60bd:	48 8b 07             	mov    (%rdi),%rax
    60c0:	0f 10 47 08          	movups 0x8(%rdi),%xmm0
    60c4:	0f 29 44 24 40       	movaps %xmm0,0x40(%rsp)
    60c9:	48 85 c0             	test   %rax,%rax
    60cc:	74 5e                	je     612c <_ZN3std6thread6Thread3new17hcea73d56c21216cfE+0x7c>
    60ce:	48 89 04 24          	mov    %rax,(%rsp)
    60d2:	0f 28 44 24 40       	movaps 0x40(%rsp),%xmm0
    60d7:	0f 11 44 24 08       	movups %xmm0,0x8(%rsp)
    60dc:	48 8d 7c 24 28       	lea    0x28(%rsp),%rdi
    60e1:	48 89 e6             	mov    %rsp,%rsi
    60e4:	ff 15 6e da 02 00    	callq  *0x2da6e(%rip)        # 33b58 <_GLOBAL_OFFSET_TABLE_+0x1f8>
    60ea:	48 8b 5c 24 28       	mov    0x28(%rsp),%rbx
    60ef:	48 8b 54 24 38       	mov    0x38(%rsp),%rdx
    60f4:	48 89 df             	mov    %rbx,%rdi
    60f7:	31 f6                	xor    %esi,%esi
    60f9:	ff 15 01 dc 02 00    	callq  *0x2dc01(%rip)        # 33d00 <memchr@GLIBC_2.2.5>
    60ff:	48 85 c0             	test   %rax,%rax
    6102:	0f 85 e8 01 00 00    	jne    62f0 <_ZN3std6thread6Thread3new17hcea73d56c21216cfE+0x240>
    6108:	48 8b 44 24 38       	mov    0x38(%rsp),%rax
    610d:	48 89 44 24 10       	mov    %rax,0x10(%rsp)
    6112:	0f 10 44 24 28       	movups 0x28(%rsp),%xmm0
    6117:	0f 29 04 24          	movaps %xmm0,(%rsp)
    611b:	48 89 e7             	mov    %rsp,%rdi
    611e:	ff 15 34 de 02 00    	callq  *0x2de34(%rip)        # 33f58 <_GLOBAL_OFFSET_TABLE_+0x5f8>
    6124:	49 89 c7             	mov    %rax,%r15
    6127:	49 89 d6             	mov    %rdx,%r14
    612a:	eb 03                	jmp    612f <_ZN3std6thread6Thread3new17hcea73d56c21216cfE+0x7f>
    612c:	45 31 ff             	xor    %r15d,%r15d
    612f:	4c 89 7c 24 50       	mov    %r15,0x50(%rsp)
    6134:	4c 89 74 24 58       	mov    %r14,0x58(%rsp)
    6139:	48 8d 1d f8 de 02 00 	lea    0x2def8(%rip),%rbx        # 34038 <_ZN3std6thread8ThreadId3new5GUARD17h6f60a81b3100e2deE>
    6140:	48 89 df             	mov    %rbx,%rdi
    6143:	ff 15 87 de 02 00    	callq  *0x2de87(%rip)        # 33fd0 <pthread_mutex_lock@GLIBC_2.2.5>
    6149:	48 89 1c 24          	mov    %rbx,(%rsp)
    614d:	4c 8b 2d b4 de 02 00 	mov    0x2deb4(%rip),%r13        # 34008 <_ZN3std6thread8ThreadId3new7COUNTER17h60b03a497ffdecd0E>
    6154:	49 83 fd ff          	cmp    $0xffffffffffffffff,%r13
    6158:	0f 84 3d 01 00 00    	je     629b <_ZN3std6thread6Thread3new17hcea73d56c21216cfE+0x1eb>
    615e:	49 8d 45 01          	lea    0x1(%r13),%rax
    6162:	48 89 05 9f de 02 00 	mov    %rax,0x2de9f(%rip)        # 34008 <_ZN3std6thread8ThreadId3new7COUNTER17h60b03a497ffdecd0E>
    6169:	4d 85 ed             	test   %r13,%r13
    616c:	0f 84 43 01 00 00    	je     62b5 <_ZN3std6thread6Thread3new17hcea73d56c21216cfE+0x205>
    6172:	48 8d 3d bf de 02 00 	lea    0x2debf(%rip),%rdi        # 34038 <_ZN3std6thread8ThreadId3new5GUARD17h6f60a81b3100e2deE>
    6179:	ff 15 81 dc 02 00    	callq  *0x2dc81(%rip)        # 33e00 <pthread_mutex_unlock@GLIBC_2.2.5>
    617f:	bf 28 00 00 00       	mov    $0x28,%edi
    6184:	be 08 00 00 00       	mov    $0x8,%esi
    6189:	ff 15 81 da 02 00    	callq  *0x2da81(%rip)        # 33c10 <_GLOBAL_OFFSET_TABLE_+0x2b0>
    618f:	48 85 c0             	test   %rax,%rax
    6192:	0f 84 38 01 00 00    	je     62d0 <_ZN3std6thread6Thread3new17hcea73d56c21216cfE+0x220>
    6198:	48 89 c3             	mov    %rax,%rbx
    619b:	0f 57 c0             	xorps  %xmm0,%xmm0
    619e:	0f 11 40 10          	movups %xmm0,0x10(%rax)
    61a2:	0f 11 00             	movups %xmm0,(%rax)
    61a5:	48 c7 40 20 00 00 00 	movq   $0x0,0x20(%rax)
    61ac:	00 
    61ad:	49 89 e4             	mov    %rsp,%r12
    61b0:	4c 89 e7             	mov    %r12,%rdi
    61b3:	ff 15 87 da 02 00    	callq  *0x2da87(%rip)        # 33c40 <pthread_mutexattr_init@GLIBC_2.2.5>
    61b9:	4c 89 e7             	mov    %r12,%rdi
    61bc:	31 f6                	xor    %esi,%esi
    61be:	ff 15 44 dc 02 00    	callq  *0x2dc44(%rip)        # 33e08 <pthread_mutexattr_settype@GLIBC_2.2.5>
    61c4:	48 89 df             	mov    %rbx,%rdi
    61c7:	4c 89 e6             	mov    %r12,%rsi
    61ca:	ff 15 e8 dd 02 00    	callq  *0x2dde8(%rip)        # 33fb8 <pthread_mutex_init@GLIBC_2.2.5>
    61d0:	4c 89 e7             	mov    %r12,%rdi
    61d3:	ff 15 0f da 02 00    	callq  *0x2da0f(%rip)        # 33be8 <pthread_mutexattr_destroy@GLIBC_2.2.5>
    61d9:	48 89 5c 24 28       	mov    %rbx,0x28(%rsp)
    61de:	c6 44 24 30 00       	movb   $0x0,0x30(%rsp)
    61e3:	8b 04 24             	mov    (%rsp),%eax
    61e6:	8b 4c 24 03          	mov    0x3(%rsp),%ecx
    61ea:	89 44 24 31          	mov    %eax,0x31(%rsp)
    61ee:	89 4c 24 34          	mov    %ecx,0x34(%rsp)
    61f2:	bf 30 00 00 00       	mov    $0x30,%edi
    61f7:	be 08 00 00 00       	mov    $0x8,%esi
    61fc:	ff 15 0e da 02 00    	callq  *0x2da0e(%rip)        # 33c10 <_GLOBAL_OFFSET_TABLE_+0x2b0>
    6202:	48 85 c0             	test   %rax,%rax
    6205:	0f 84 cc 00 00 00    	je     62d7 <_ZN3std6thread6Thread3new17hcea73d56c21216cfE+0x227>
    620b:	0f 57 c0             	xorps  %xmm0,%xmm0
    620e:	0f 11 40 20          	movups %xmm0,0x20(%rax)
    6212:	0f 11 40 10          	movups %xmm0,0x10(%rax)
    6216:	0f 11 00             	movups %xmm0,(%rax)
    6219:	48 89 04 24          	mov    %rax,(%rsp)
    621d:	48 c7 44 24 08 00 00 	movq   $0x0,0x8(%rsp)
    6224:	00 00 
    6226:	48 89 c7             	mov    %rax,%rdi
    6229:	e8 82 67 00 00       	callq  c9b0 <_ZN3std3sys4unix7condvar7Condvar4init17h6992a80dbd1943f7E>
    622e:	0f 10 04 24          	movups (%rsp),%xmm0
    6232:	0f 29 44 24 40       	movaps %xmm0,0x40(%rsp)
    6237:	0f 10 44 24 28       	movups 0x28(%rsp),%xmm0
    623c:	0f 29 04 24          	movaps %xmm0,(%rsp)
    6240:	bf 50 00 00 00       	mov    $0x50,%edi
    6245:	be 08 00 00 00       	mov    $0x8,%esi
    624a:	ff 15 c0 d9 02 00    	callq  *0x2d9c0(%rip)        # 33c10 <_GLOBAL_OFFSET_TABLE_+0x2b0>
    6250:	48 85 c0             	test   %rax,%rax
    6253:	0f 84 85 00 00 00    	je     62de <_ZN3std6thread6Thread3new17hcea73d56c21216cfE+0x22e>
    6259:	48 c7 00 01 00 00 00 	movq   $0x1,(%rax)
    6260:	48 c7 40 08 01 00 00 	movq   $0x1,0x8(%rax)
    6267:	00 
    6268:	4c 89 78 10          	mov    %r15,0x10(%rax)
    626c:	4c 89 70 18          	mov    %r14,0x18(%rax)
    6270:	4c 89 68 20          	mov    %r13,0x20(%rax)
    6274:	48 c7 40 28 00 00 00 	movq   $0x0,0x28(%rax)
    627b:	00 
    627c:	0f 28 04 24          	movaps (%rsp),%xmm0
    6280:	0f 11 40 30          	movups %xmm0,0x30(%rax)
    6284:	0f 28 44 24 40       	movaps 0x40(%rsp),%xmm0
    6289:	0f 11 40 40          	movups %xmm0,0x40(%rax)
    628d:	48 83 c4 60          	add    $0x60,%rsp
    6291:	5b                   	pop    %rbx
    6292:	41 5c                	pop    %r12
    6294:	41 5d                	pop    %r13
    6296:	41 5e                	pop    %r14
    6298:	41 5f                	pop    %r15
    629a:	c3                   	retq   
    629b:	48 8d 3d 3f 06 02 00 	lea    0x2063f(%rip),%rdi        # 268e1 <_fini+0x1785>
    62a2:	48 8d 15 67 c0 02 00 	lea    0x2c067(%rip),%rdx        # 32310 <anon.2a2a8279f82dd18d5d6ec8aaf5193350.2.llvm.9782508449811801216+0x348>
    62a9:	be 37 00 00 00       	mov    $0x37,%esi
    62ae:	e8 9d 5a 00 00       	callq  bd50 <_ZN3std9panicking11begin_panic17h08f1408df91fcb1bE>
    62b3:	eb 72                	jmp    6327 <_ZN3std6thread6Thread3new17hcea73d56c21216cfE+0x277>
    62b5:	48 8d 3d fc 02 02 00 	lea    0x202fc(%rip),%rdi        # 265b8 <_fini+0x145c>
    62bc:	48 8d 15 5d be 02 00 	lea    0x2be5d(%rip),%rdx        # 32120 <anon.2a2a8279f82dd18d5d6ec8aaf5193350.2.llvm.9782508449811801216+0x158>
    62c3:	be 2b 00 00 00       	mov    $0x2b,%esi
    62c8:	ff 15 d2 d8 02 00    	callq  *0x2d8d2(%rip)        # 33ba0 <_GLOBAL_OFFSET_TABLE_+0x240>
    62ce:	eb 57                	jmp    6327 <_ZN3std6thread6Thread3new17hcea73d56c21216cfE+0x277>
    62d0:	bf 28 00 00 00       	mov    $0x28,%edi
    62d5:	eb 0c                	jmp    62e3 <_ZN3std6thread6Thread3new17hcea73d56c21216cfE+0x233>
    62d7:	bf 30 00 00 00       	mov    $0x30,%edi
    62dc:	eb 05                	jmp    62e3 <_ZN3std6thread6Thread3new17hcea73d56c21216cfE+0x233>
    62de:	bf 50 00 00 00       	mov    $0x50,%edi
    62e3:	be 08 00 00 00       	mov    $0x8,%esi
    62e8:	ff 15 c2 d8 02 00    	callq  *0x2d8c2(%rip)        # 33bb0 <_GLOBAL_OFFSET_TABLE_+0x250>
    62ee:	0f 0b                	ud2    
    62f0:	48 29 d8             	sub    %rbx,%rax
    62f3:	0f 10 44 24 30       	movups 0x30(%rsp),%xmm0
    62f8:	0f 29 44 24 50       	movaps %xmm0,0x50(%rsp)
    62fd:	48 89 04 24          	mov    %rax,(%rsp)
    6301:	48 89 5c 24 08       	mov    %rbx,0x8(%rsp)
    6306:	0f 11 44 24 10       	movups %xmm0,0x10(%rsp)
    630b:	48 8d 3d 06 06 02 00 	lea    0x20606(%rip),%rdi        # 26918 <_fini+0x17bc>
    6312:	48 8d 0d cf be 02 00 	lea    0x2becf(%rip),%rcx        # 321e8 <anon.2a2a8279f82dd18d5d6ec8aaf5193350.2.llvm.9782508449811801216+0x220>
    6319:	48 89 e2             	mov    %rsp,%rdx
    631c:	be 2f 00 00 00       	mov    $0x2f,%esi
    6321:	ff 15 59 d8 02 00    	callq  *0x2d859(%rip)        # 33b80 <_GLOBAL_OFFSET_TABLE_+0x220>
    6327:	0f 0b                	ud2    
    6329:	48 89 c3             	mov    %rax,%rbx
    632c:	48 89 e7             	mov    %rsp,%rdi
    632f:	e8 5c ea ff ff       	callq  4d90 <_ZN4core3ptr18real_drop_in_place17h28912cddb22d9c82E>
    6334:	eb 2c                	jmp    6362 <_ZN3std6thread6Thread3new17hcea73d56c21216cfE+0x2b2>
    6336:	48 89 c3             	mov    %rax,%rbx
    6339:	48 89 e7             	mov    %rsp,%rdi
    633c:	e8 8f ec ff ff       	callq  4fd0 <_ZN4core3ptr18real_drop_in_place17h5cd56ca2e2d6b4ccE>
    6341:	eb 15                	jmp    6358 <_ZN3std6thread6Thread3new17hcea73d56c21216cfE+0x2a8>
    6343:	48 89 c3             	mov    %rax,%rbx
    6346:	48 89 e7             	mov    %rsp,%rdi
    6349:	e8 92 e9 ff ff       	callq  4ce0 <_ZN4core3ptr18real_drop_in_place17h17aeea7d36ebe06eE>
    634e:	48 8d 7c 24 28       	lea    0x28(%rsp),%rdi
    6353:	e8 b8 ef ff ff       	callq  5310 <_ZN4core3ptr18real_drop_in_place17he0692247f0909581E>
    6358:	48 8d 7c 24 50       	lea    0x50(%rsp),%rdi
    635d:	e8 0e e9 ff ff       	callq  4c70 <_ZN4core3ptr18real_drop_in_place17h02207206f643a2adE>
    6362:	48 89 df             	mov    %rbx,%rdi
    6365:	e8 46 de ff ff       	callq  41b0 <_Unwind_Resume@plt>
    636a:	0f 0b                	ud2    
    636c:	0f 1f 40 00          	nopl   0x0(%rax)

0000000000006370 <_ZN3std6thread6Thread6unpark17h69116d3f0f6231baE>:
    6370:	53                   	push   %rbx
    6371:	48 83 ec 10          	sub    $0x10,%rsp
    6375:	48 8b 0f             	mov    (%rdi),%rcx
    6378:	b8 02 00 00 00       	mov    $0x2,%eax
    637d:	48 87 41 28          	xchg   %rax,0x28(%rcx)
    6381:	48 85 c0             	test   %rax,%rax
    6384:	74 0c                	je     6392 <_ZN3std6thread6Thread6unpark17h69116d3f0f6231baE+0x22>
    6386:	48 83 f8 01          	cmp    $0x1,%rax
    638a:	74 0c                	je     6398 <_ZN3std6thread6Thread6unpark17h69116d3f0f6231baE+0x28>
    638c:	48 83 f8 02          	cmp    $0x2,%rax
    6390:	75 7a                	jne    640c <_ZN3std6thread6Thread6unpark17h69116d3f0f6231baE+0x9c>
    6392:	48 83 c4 10          	add    $0x10,%rsp
    6396:	5b                   	pop    %rbx
    6397:	c3                   	retq   
    6398:	48 8b 1f             	mov    (%rdi),%rbx
    639b:	48 8b 7b 30          	mov    0x30(%rbx),%rdi
    639f:	ff 15 2b dc 02 00    	callq  *0x2dc2b(%rip)        # 33fd0 <pthread_mutex_lock@GLIBC_2.2.5>
    63a5:	66 66 66 64 48 8b 04 	data16 data16 data16 mov %fs:0x0,%rax
    63ac:	25 00 00 00 00 
    63b1:	48 89 c1             	mov    %rax,%rcx
    63b4:	48 83 b8 e8 ff ff ff 	cmpq   $0x1,-0x18(%rax)
    63bb:	01 
    63bc:	75 0c                	jne    63ca <_ZN3std6thread6Thread6unpark17h69116d3f0f6231baE+0x5a>
    63be:	48 89 c1             	mov    %rax,%rcx
    63c1:	48 8b 88 f0 ff ff ff 	mov    -0x10(%rax),%rcx
    63c8:	eb 1b                	jmp    63e5 <_ZN3std6thread6Thread6unpark17h69116d3f0f6231baE+0x75>
    63ca:	48 89 c1             	mov    %rax,%rcx
    63cd:	48 c7 80 e8 ff ff ff 	movq   $0x1,-0x18(%rax)
    63d4:	01 00 00 00 
    63d8:	48 c7 80 f0 ff ff ff 	movq   $0x0,-0x10(%rax)
    63df:	00 00 00 00 
    63e3:	31 c9                	xor    %ecx,%ecx
    63e5:	48 89 88 f0 ff ff ff 	mov    %rcx,-0x10(%rax)
    63ec:	8a 43 38             	mov    0x38(%rbx),%al
    63ef:	84 c0                	test   %al,%al
    63f1:	75 33                	jne    6426 <_ZN3std6thread6Thread6unpark17h69116d3f0f6231baE+0xb6>
    63f3:	48 8b 7b 30          	mov    0x30(%rbx),%rdi
    63f7:	ff 15 03 da 02 00    	callq  *0x2da03(%rip)        # 33e00 <pthread_mutex_unlock@GLIBC_2.2.5>
    63fd:	48 8b 7b 40          	mov    0x40(%rbx),%rdi
    6401:	48 83 c4 10          	add    $0x10,%rsp
    6405:	5b                   	pop    %rbx
    6406:	ff 25 14 d9 02 00    	jmpq   *0x2d914(%rip)        # 33d20 <pthread_cond_signal@GLIBC_2.3.2>
    640c:	48 8d 3d 34 05 02 00 	lea    0x20534(%rip),%rdi        # 26947 <_fini+0x17eb>
    6413:	48 8d 15 0e bf 02 00 	lea    0x2bf0e(%rip),%rdx        # 32328 <anon.2a2a8279f82dd18d5d6ec8aaf5193350.2.llvm.9782508449811801216+0x360>
    641a:	be 1c 00 00 00       	mov    $0x1c,%esi
    641f:	e8 2c 59 00 00       	callq  bd50 <_ZN3std9panicking11begin_panic17h08f1408df91fcb1bE>
    6424:	0f 0b                	ud2    
    6426:	48 83 c3 30          	add    $0x30,%rbx
    642a:	48 85 c9             	test   %rcx,%rcx
    642d:	48 89 1c 24          	mov    %rbx,(%rsp)
    6431:	0f 95 44 24 08       	setne  0x8(%rsp)
    6436:	48 8d 3d a6 01 02 00 	lea    0x201a6(%rip),%rdi        # 265e3 <_fini+0x1487>
    643d:	48 8d 0d e4 bd 02 00 	lea    0x2bde4(%rip),%rcx        # 32228 <anon.2a2a8279f82dd18d5d6ec8aaf5193350.2.llvm.9782508449811801216+0x260>
    6444:	48 89 e2             	mov    %rsp,%rdx
    6447:	be 2b 00 00 00       	mov    $0x2b,%esi
    644c:	ff 15 2e d7 02 00    	callq  *0x2d72e(%rip)        # 33b80 <_GLOBAL_OFFSET_TABLE_+0x220>
    6452:	0f 0b                	ud2    
    6454:	48 89 c3             	mov    %rax,%rbx
    6457:	48 89 e7             	mov    %rsp,%rdi
    645a:	e8 71 e9 ff ff       	callq  4dd0 <_ZN4core3ptr18real_drop_in_place17h34a07279ddef2878E>
    645f:	48 89 df             	mov    %rbx,%rdi
    6462:	e8 49 dd ff ff       	callq  41b0 <_Unwind_Resume@plt>
    6467:	0f 0b                	ud2    
    6469:	0f 1f 80 00 00 00 00 	nopl   0x0(%rax)

0000000000006470 <_ZN3std3env11current_dir17h73b67ab53cbedc87E>:
    6470:	55                   	push   %rbp
    6471:	41 57                	push   %r15
    6473:	41 56                	push   %r14
    6475:	41 55                	push   %r13
    6477:	41 54                	push   %r12
    6479:	53                   	push   %rbx
    647a:	48 83 ec 28          	sub    $0x28,%rsp
    647e:	49 89 fe             	mov    %rdi,%r14
    6481:	41 bc 00 02 00 00    	mov    $0x200,%r12d
    6487:	bf 00 02 00 00       	mov    $0x200,%edi
    648c:	be 01 00 00 00       	mov    $0x1,%esi
    6491:	ff 15 79 d7 02 00    	callq  *0x2d779(%rip)        # 33c10 <_GLOBAL_OFFSET_TABLE_+0x2b0>
    6497:	48 85 c0             	test   %rax,%rax
    649a:	0f 84 05 02 00 00    	je     66a5 <_ZN3std3env11current_dir17h73b67ab53cbedc87E+0x235>
    64a0:	49 89 c7             	mov    %rax,%r15
    64a3:	48 89 44 24 08       	mov    %rax,0x8(%rsp)
    64a8:	48 c7 44 24 10 00 02 	movq   $0x200,0x10(%rsp)
    64af:	00 00 
    64b1:	48 c7 44 24 18 00 00 	movq   $0x0,0x18(%rsp)
    64b8:	00 00 
    64ba:	be 00 02 00 00       	mov    $0x200,%esi
    64bf:	48 89 c7             	mov    %rax,%rdi
    64c2:	ff 15 d0 d7 02 00    	callq  *0x2d7d0(%rip)        # 33c98 <getcwd@GLIBC_2.2.5>
    64c8:	48 85 c0             	test   %rax,%rax
    64cb:	74 58                	je     6525 <_ZN3std3env11current_dir17h73b67ab53cbedc87E+0xb5>
    64cd:	4c 89 ff             	mov    %r15,%rdi
    64d0:	ff 15 fa d6 02 00    	callq  *0x2d6fa(%rip)        # 33bd0 <strlen@GLIBC_2.2.5>
    64d6:	48 83 f8 ff          	cmp    $0xffffffffffffffff,%rax
    64da:	0f 84 d7 01 00 00    	je     66b7 <_ZN3std3env11current_dir17h73b67ab53cbedc87E+0x247>
    64e0:	48 89 c3             	mov    %rax,%rbx
    64e3:	48 89 44 24 18       	mov    %rax,0x18(%rsp)
    64e8:	49 39 c4             	cmp    %rax,%r12
    64eb:	0f 84 45 01 00 00    	je     6636 <_ZN3std3env11current_dir17h73b67ab53cbedc87E+0x1c6>
    64f1:	0f 82 d1 01 00 00    	jb     66c8 <_ZN3std3env11current_dir17h73b67ab53cbedc87E+0x258>
    64f7:	48 85 db             	test   %rbx,%rbx
    64fa:	0f 84 0e 01 00 00    	je     660e <_ZN3std3env11current_dir17h73b67ab53cbedc87E+0x19e>
    6500:	ba 01 00 00 00       	mov    $0x1,%edx
    6505:	4c 89 ff             	mov    %r15,%rdi
    6508:	4c 89 e6             	mov    %r12,%rsi
    650b:	48 89 d9             	mov    %rbx,%rcx
    650e:	ff 15 94 da 02 00    	callq  *0x2da94(%rip)        # 33fa8 <_GLOBAL_OFFSET_TABLE_+0x648>
    6514:	48 85 c0             	test   %rax,%rax
    6517:	0f 84 c6 01 00 00    	je     66e3 <_ZN3std3env11current_dir17h73b67ab53cbedc87E+0x273>
    651d:	49 89 c5             	mov    %rax,%r13
    6520:	e9 07 01 00 00       	jmpq   662c <_ZN3std3env11current_dir17h73b67ab53cbedc87E+0x1bc>
    6525:	ff 15 75 d5 02 00    	callq  *0x2d575(%rip)        # 33aa0 <__errno_location@GLIBC_2.2.5>
    652b:	8b 00                	mov    (%rax),%eax
    652d:	83 f8 22             	cmp    $0x22,%eax
    6530:	0f 85 87 00 00 00    	jne    65bd <_ZN3std3env11current_dir17h73b67ab53cbedc87E+0x14d>
    6536:	bb 00 02 00 00       	mov    $0x200,%ebx
    653b:	48 8b 2d 56 d7 02 00 	mov    0x2d756(%rip),%rbp        # 33c98 <getcwd@GLIBC_2.2.5>
    6542:	4c 8b 2d 57 d5 02 00 	mov    0x2d557(%rip),%r13        # 33aa0 <__errno_location@GLIBC_2.2.5>
    6549:	49 89 dc             	mov    %rbx,%r12
    654c:	0f 1f 40 00          	nopl   0x0(%rax)
    6550:	49 ff c4             	inc    %r12
    6553:	0f 84 25 01 00 00    	je     667e <_ZN3std3env11current_dir17h73b67ab53cbedc87E+0x20e>
    6559:	48 8d 04 1b          	lea    (%rbx,%rbx,1),%rax
    655d:	4c 39 e0             	cmp    %r12,%rax
    6560:	4c 0f 47 e0          	cmova  %rax,%r12
    6564:	48 85 db             	test   %rbx,%rbx
    6567:	74 17                	je     6580 <_ZN3std3env11current_dir17h73b67ab53cbedc87E+0x110>
    6569:	ba 01 00 00 00       	mov    $0x1,%edx
    656e:	4c 89 ff             	mov    %r15,%rdi
    6571:	48 89 de             	mov    %rbx,%rsi
    6574:	4c 89 e1             	mov    %r12,%rcx
    6577:	ff 15 2b da 02 00    	callq  *0x2da2b(%rip)        # 33fa8 <_GLOBAL_OFFSET_TABLE_+0x648>
    657d:	eb 0f                	jmp    658e <_ZN3std3env11current_dir17h73b67ab53cbedc87E+0x11e>
    657f:	90                   	nop
    6580:	be 01 00 00 00       	mov    $0x1,%esi
    6585:	4c 89 e7             	mov    %r12,%rdi
    6588:	ff 15 82 d6 02 00    	callq  *0x2d682(%rip)        # 33c10 <_GLOBAL_OFFSET_TABLE_+0x2b0>
    658e:	49 89 c7             	mov    %rax,%r15
    6591:	48 85 c0             	test   %rax,%rax
    6594:	0f 84 fb 00 00 00    	je     6695 <_ZN3std3env11current_dir17h73b67ab53cbedc87E+0x225>
    659a:	4c 89 ff             	mov    %r15,%rdi
    659d:	4c 89 e6             	mov    %r12,%rsi
    65a0:	ff d5                	callq  *%rbp
    65a2:	48 85 c0             	test   %rax,%rax
    65a5:	0f 85 bf 00 00 00    	jne    666a <_ZN3std3env11current_dir17h73b67ab53cbedc87E+0x1fa>
    65ab:	41 ff d5             	callq  *%r13
    65ae:	8b 00                	mov    (%rax),%eax
    65b0:	48 89 d9             	mov    %rbx,%rcx
    65b3:	4c 89 e3             	mov    %r12,%rbx
    65b6:	83 f8 22             	cmp    $0x22,%eax
    65b9:	74 95                	je     6550 <_ZN3std3env11current_dir17h73b67ab53cbedc87E+0xe0>
    65bb:	eb 08                	jmp    65c5 <_ZN3std3env11current_dir17h73b67ab53cbedc87E+0x155>
    65bd:	41 bc 00 02 00 00    	mov    $0x200,%r12d
    65c3:	31 c9                	xor    %ecx,%ecx
    65c5:	48 89 4c 24 18       	mov    %rcx,0x18(%rsp)
    65ca:	4c 89 7c 24 08       	mov    %r15,0x8(%rsp)
    65cf:	4c 89 64 24 10       	mov    %r12,0x10(%rsp)
    65d4:	41 c6 46 08 00       	movb   $0x0,0x8(%r14)
    65d9:	0f b7 4c 24 25       	movzwl 0x25(%rsp),%ecx
    65de:	66 41 89 4e 09       	mov    %cx,0x9(%r14)
    65e3:	8a 4c 24 27          	mov    0x27(%rsp),%cl
    65e7:	41 88 4e 0b          	mov    %cl,0xb(%r14)
    65eb:	41 89 46 0c          	mov    %eax,0xc(%r14)
    65ef:	49 c7 06 01 00 00 00 	movq   $0x1,(%r14)
    65f6:	4d 85 e4             	test   %r12,%r12
    65f9:	74 5d                	je     6658 <_ZN3std3env11current_dir17h73b67ab53cbedc87E+0x1e8>
    65fb:	ba 01 00 00 00       	mov    $0x1,%edx
    6600:	4c 89 ff             	mov    %r15,%rdi
    6603:	4c 89 e6             	mov    %r12,%rsi
    6606:	ff 15 6c d6 02 00    	callq  *0x2d66c(%rip)        # 33c78 <_GLOBAL_OFFSET_TABLE_+0x318>
    660c:	eb 4a                	jmp    6658 <_ZN3std3env11current_dir17h73b67ab53cbedc87E+0x1e8>
    660e:	41 bd 01 00 00 00    	mov    $0x1,%r13d
    6614:	4d 85 e4             	test   %r12,%r12
    6617:	74 11                	je     662a <_ZN3std3env11current_dir17h73b67ab53cbedc87E+0x1ba>
    6619:	ba 01 00 00 00       	mov    $0x1,%edx
    661e:	4c 89 ff             	mov    %r15,%rdi
    6621:	4c 89 e6             	mov    %r12,%rsi
    6624:	ff 15 4e d6 02 00    	callq  *0x2d64e(%rip)        # 33c78 <_GLOBAL_OFFSET_TABLE_+0x318>
    662a:	31 db                	xor    %ebx,%ebx
    662c:	4c 89 6c 24 08       	mov    %r13,0x8(%rsp)
    6631:	48 89 5c 24 10       	mov    %rbx,0x10(%rsp)
    6636:	48 8b 44 24 18       	mov    0x18(%rsp),%rax
    663b:	49 89 46 18          	mov    %rax,0x18(%r14)
    663f:	48 8b 44 24 08       	mov    0x8(%rsp),%rax
    6644:	49 89 46 08          	mov    %rax,0x8(%r14)
    6648:	48 8b 44 24 10       	mov    0x10(%rsp),%rax
    664d:	49 89 46 10          	mov    %rax,0x10(%r14)
    6651:	49 c7 06 00 00 00 00 	movq   $0x0,(%r14)
    6658:	4c 89 f0             	mov    %r14,%rax
    665b:	48 83 c4 28          	add    $0x28,%rsp
    665f:	5b                   	pop    %rbx
    6660:	41 5c                	pop    %r12
    6662:	41 5d                	pop    %r13
    6664:	41 5e                	pop    %r14
    6666:	41 5f                	pop    %r15
    6668:	5d                   	pop    %rbp
    6669:	c3                   	retq   
    666a:	48 89 5c 24 18       	mov    %rbx,0x18(%rsp)
    666f:	4c 89 7c 24 08       	mov    %r15,0x8(%rsp)
    6674:	4c 89 64 24 10       	mov    %r12,0x10(%rsp)
    6679:	e9 4f fe ff ff       	jmpq   64cd <_ZN3std3env11current_dir17h73b67ab53cbedc87E+0x5d>
    667e:	48 89 5c 24 18       	mov    %rbx,0x18(%rsp)
    6683:	4c 89 7c 24 08       	mov    %r15,0x8(%rsp)
    6688:	48 89 5c 24 10       	mov    %rbx,0x10(%rsp)
    668d:	ff 15 45 d4 02 00    	callq  *0x2d445(%rip)        # 33ad8 <_GLOBAL_OFFSET_TABLE_+0x178>
    6693:	0f 0b                	ud2    
    6695:	be 01 00 00 00       	mov    $0x1,%esi
    669a:	4c 89 e7             	mov    %r12,%rdi
    669d:	ff 15 0d d5 02 00    	callq  *0x2d50d(%rip)        # 33bb0 <_GLOBAL_OFFSET_TABLE_+0x250>
    66a3:	0f 0b                	ud2    
    66a5:	bf 00 02 00 00       	mov    $0x200,%edi
    66aa:	be 01 00 00 00       	mov    $0x1,%esi
    66af:	ff 15 fb d4 02 00    	callq  *0x2d4fb(%rip)        # 33bb0 <_GLOBAL_OFFSET_TABLE_+0x250>
    66b5:	0f 0b                	ud2    
    66b7:	48 c7 c7 ff ff ff ff 	mov    $0xffffffffffffffff,%rdi
    66be:	31 f6                	xor    %esi,%esi
    66c0:	ff 15 1a d6 02 00    	callq  *0x2d61a(%rip)        # 33ce0 <_GLOBAL_OFFSET_TABLE_+0x380>
    66c6:	eb cb                	jmp    6693 <_ZN3std3env11current_dir17h73b67ab53cbedc87E+0x223>
    66c8:	48 8d 3d 81 00 02 00 	lea    0x20081(%rip),%rdi        # 26750 <_fini+0x15f4>
    66cf:	48 8d 15 72 bb 02 00 	lea    0x2bb72(%rip),%rdx        # 32248 <anon.2a2a8279f82dd18d5d6ec8aaf5193350.2.llvm.9782508449811801216+0x280>
    66d6:	be 24 00 00 00       	mov    $0x24,%esi
    66db:	ff 15 bf d4 02 00    	callq  *0x2d4bf(%rip)        # 33ba0 <_GLOBAL_OFFSET_TABLE_+0x240>
    66e1:	eb b0                	jmp    6693 <_ZN3std3env11current_dir17h73b67ab53cbedc87E+0x223>
    66e3:	be 01 00 00 00       	mov    $0x1,%esi
    66e8:	48 89 df             	mov    %rbx,%rdi
    66eb:	ff 15 bf d4 02 00    	callq  *0x2d4bf(%rip)        # 33bb0 <_GLOBAL_OFFSET_TABLE_+0x250>
    66f1:	0f 0b                	ud2    
    66f3:	48 89 c3             	mov    %rax,%rbx
    66f6:	48 8d 7c 24 08       	lea    0x8(%rsp),%rdi
    66fb:	e8 a0 e5 ff ff       	callq  4ca0 <_ZN4core3ptr18real_drop_in_place17h0459fc0540f75304E>
    6700:	48 89 df             	mov    %rbx,%rdi
    6703:	e8 a8 da ff ff       	callq  41b0 <_Unwind_Resume@plt>
    6708:	0f 0b                	ud2    
    670a:	66 0f 1f 44 00 00    	nopw   0x0(%rax,%rax,1)

0000000000006710 <_ZN3std3env7_var_os17h990cc4e5f3017189E>:
    6710:	55                   	push   %rbp
    6711:	41 57                	push   %r15
    6713:	41 56                	push   %r14
    6715:	41 55                	push   %r13
    6717:	41 54                	push   %r12
    6719:	53                   	push   %rbx
    671a:	48 81 ec a8 00 00 00 	sub    $0xa8,%rsp
    6721:	49 89 fe             	mov    %rdi,%r14
    6724:	48 89 b4 24 98 00 00 	mov    %rsi,0x98(%rsp)
    672b:	00 
    672c:	48 89 94 24 a0 00 00 	mov    %rdx,0xa0(%rsp)
    6733:	00 
    6734:	48 8d 7c 24 30       	lea    0x30(%rsp),%rdi
    6739:	e8 92 02 00 00       	callq  69d0 <_ZN3std3ffi5c_str7CString3new17h8285c8f88e876ae7E>
    673e:	48 83 7c 24 30 01    	cmpq   $0x1,0x30(%rsp)
    6744:	0f 84 01 01 00 00    	je     684b <_ZN3std3env7_var_os17h990cc4e5f3017189E+0x13b>
    674a:	4c 8b 64 24 38       	mov    0x38(%rsp),%r12
    674f:	4c 8b 7c 24 40       	mov    0x40(%rsp),%r15
    6754:	4c 89 a4 24 88 00 00 	mov    %r12,0x88(%rsp)
    675b:	00 
    675c:	4c 89 bc 24 90 00 00 	mov    %r15,0x90(%rsp)
    6763:	00 
    6764:	48 8d 1d 25 da 02 00 	lea    0x2da25(%rip),%rbx        # 34190 <_ZN3std3sys4unix2os8env_lock8ENV_LOCK17h191aba17f696daf9E>
    676b:	48 89 df             	mov    %rbx,%rdi
    676e:	ff 15 5c d8 02 00    	callq  *0x2d85c(%rip)        # 33fd0 <pthread_mutex_lock@GLIBC_2.2.5>
    6774:	48 89 5c 24 30       	mov    %rbx,0x30(%rsp)
    6779:	4c 89 e7             	mov    %r12,%rdi
    677c:	ff 15 c6 d2 02 00    	callq  *0x2d2c6(%rip)        # 33a48 <getenv@GLIBC_2.2.5>
    6782:	48 85 c0             	test   %rax,%rax
    6785:	74 4e                	je     67d5 <_ZN3std3env7_var_os17h990cc4e5f3017189E+0xc5>
    6787:	49 89 c5             	mov    %rax,%r13
    678a:	48 89 c7             	mov    %rax,%rdi
    678d:	ff 15 3d d4 02 00    	callq  *0x2d43d(%rip)        # 33bd0 <strlen@GLIBC_2.2.5>
    6793:	48 89 c3             	mov    %rax,%rbx
    6796:	bd 01 00 00 00       	mov    $0x1,%ebp
    679b:	48 85 c0             	test   %rax,%rax
    679e:	74 24                	je     67c4 <_ZN3std3env7_var_os17h990cc4e5f3017189E+0xb4>
    67a0:	48 83 fb ff          	cmp    $0xffffffffffffffff,%rbx
    67a4:	0f 84 50 01 00 00    	je     68fa <_ZN3std3env7_var_os17h990cc4e5f3017189E+0x1ea>
    67aa:	be 01 00 00 00       	mov    $0x1,%esi
    67af:	48 89 df             	mov    %rbx,%rdi
    67b2:	ff 15 58 d4 02 00    	callq  *0x2d458(%rip)        # 33c10 <_GLOBAL_OFFSET_TABLE_+0x2b0>
    67b8:	48 89 c5             	mov    %rax,%rbp
    67bb:	48 85 c0             	test   %rax,%rax
    67be:	0f 84 47 01 00 00    	je     690b <_ZN3std3env7_var_os17h990cc4e5f3017189E+0x1fb>
    67c4:	48 89 ef             	mov    %rbp,%rdi
    67c7:	4c 89 ee             	mov    %r13,%rsi
    67ca:	48 89 da             	mov    %rbx,%rdx
    67cd:	ff 15 cd d5 02 00    	callq  *0x2d5cd(%rip)        # 33da0 <memcpy@GLIBC_2.14>
    67d3:	eb 02                	jmp    67d7 <_ZN3std3env7_var_os17h990cc4e5f3017189E+0xc7>
    67d5:	31 ed                	xor    %ebp,%ebp
    67d7:	48 89 6c 24 18       	mov    %rbp,0x18(%rsp)
    67dc:	48 89 5c 24 20       	mov    %rbx,0x20(%rsp)
    67e1:	48 89 5c 24 28       	mov    %rbx,0x28(%rsp)
    67e6:	48 c7 44 24 10 00 00 	movq   $0x0,0x10(%rsp)
    67ed:	00 00 
    67ef:	48 8d 3d 9a d9 02 00 	lea    0x2d99a(%rip),%rdi        # 34190 <_ZN3std3sys4unix2os8env_lock8ENV_LOCK17h191aba17f696daf9E>
    67f6:	ff 15 04 d6 02 00    	callq  *0x2d604(%rip)        # 33e00 <pthread_mutex_unlock@GLIBC_2.2.5>
    67fc:	41 c6 04 24 00       	movb   $0x0,(%r12)
    6801:	4d 85 ff             	test   %r15,%r15
    6804:	74 16                	je     681c <_ZN3std3env7_var_os17h990cc4e5f3017189E+0x10c>
    6806:	48 8b bc 24 88 00 00 	mov    0x88(%rsp),%rdi
    680d:	00 
    680e:	ba 01 00 00 00       	mov    $0x1,%edx
    6813:	4c 89 fe             	mov    %r15,%rsi
    6816:	ff 15 5c d4 02 00    	callq  *0x2d45c(%rip)        # 33c78 <_GLOBAL_OFFSET_TABLE_+0x318>
    681c:	48 83 7c 24 10 01    	cmpq   $0x1,0x10(%rsp)
    6822:	74 5b                	je     687f <_ZN3std3env7_var_os17h990cc4e5f3017189E+0x16f>
    6824:	48 8b 44 24 28       	mov    0x28(%rsp),%rax
    6829:	49 89 46 10          	mov    %rax,0x10(%r14)
    682d:	0f 10 44 24 18       	movups 0x18(%rsp),%xmm0
    6832:	41 0f 11 06          	movups %xmm0,(%r14)
    6836:	4c 89 f0             	mov    %r14,%rax
    6839:	48 81 c4 a8 00 00 00 	add    $0xa8,%rsp
    6840:	5b                   	pop    %rbx
    6841:	41 5c                	pop    %r12
    6843:	41 5d                	pop    %r13
    6845:	41 5e                	pop    %r14
    6847:	41 5f                	pop    %r15
    6849:	5d                   	pop    %rbp
    684a:	c3                   	retq   
    684b:	0f 10 44 24 38       	movups 0x38(%rsp),%xmm0
    6850:	0f 10 4c 24 48       	movups 0x48(%rsp),%xmm1
    6855:	0f 29 4c 24 70       	movaps %xmm1,0x70(%rsp)
    685a:	0f 29 44 24 60       	movaps %xmm0,0x60(%rsp)
    685f:	48 89 e7             	mov    %rsp,%rdi
    6862:	48 8d 74 24 60       	lea    0x60(%rsp),%rsi
    6867:	ff 15 0b d7 02 00    	callq  *0x2d70b(%rip)        # 33f78 <_GLOBAL_OFFSET_TABLE_+0x618>
    686d:	0f 10 04 24          	movups (%rsp),%xmm0
    6871:	0f 11 44 24 18       	movups %xmm0,0x18(%rsp)
    6876:	48 c7 44 24 10 01 00 	movq   $0x1,0x10(%rsp)
    687d:	00 00 
    687f:	0f 10 44 24 18       	movups 0x18(%rsp),%xmm0
    6884:	0f 29 04 24          	movaps %xmm0,(%rsp)
    6888:	48 8d 84 24 98 00 00 	lea    0x98(%rsp),%rax
    688f:	00 
    6890:	48 89 44 24 60       	mov    %rax,0x60(%rsp)
    6895:	48 8d 05 94 27 00 00 	lea    0x2794(%rip),%rax        # 9030 <_ZN55_$LT$std..path..Display$u20$as$u20$core..fmt..Debug$GT$3fmt17h2778f58a57810470E>
    689c:	48 89 44 24 68       	mov    %rax,0x68(%rsp)
    68a1:	48 89 e0             	mov    %rsp,%rax
    68a4:	48 89 44 24 70       	mov    %rax,0x70(%rsp)
    68a9:	48 8d 05 d0 06 00 00 	lea    0x6d0(%rip),%rax        # 6f80 <_ZN60_$LT$std..io..error..Error$u20$as$u20$core..fmt..Display$GT$3fmt17h7f90692e2bcc334bE>
    68b0:	48 89 44 24 78       	mov    %rax,0x78(%rsp)
    68b5:	48 8d 05 84 ba 02 00 	lea    0x2ba84(%rip),%rax        # 32340 <anon.2a2a8279f82dd18d5d6ec8aaf5193350.2.llvm.9782508449811801216+0x378>
    68bc:	48 89 44 24 30       	mov    %rax,0x30(%rsp)
    68c1:	48 c7 44 24 38 02 00 	movq   $0x2,0x38(%rsp)
    68c8:	00 00 
    68ca:	48 c7 44 24 40 00 00 	movq   $0x0,0x40(%rsp)
    68d1:	00 00 
    68d3:	48 8d 44 24 60       	lea    0x60(%rsp),%rax
    68d8:	48 89 44 24 50       	mov    %rax,0x50(%rsp)
    68dd:	48 c7 44 24 58 02 00 	movq   $0x2,0x58(%rsp)
    68e4:	00 00 
    68e6:	48 8d 35 73 ba 02 00 	lea    0x2ba73(%rip),%rsi        # 32360 <anon.2a2a8279f82dd18d5d6ec8aaf5193350.2.llvm.9782508449811801216+0x398>
    68ed:	48 8d 7c 24 30       	lea    0x30(%rsp),%rdi
    68f2:	ff 15 68 d3 02 00    	callq  *0x2d368(%rip)        # 33c60 <_GLOBAL_OFFSET_TABLE_+0x300>
    68f8:	eb 0f                	jmp    6909 <_ZN3std3env7_var_os17h990cc4e5f3017189E+0x1f9>
    68fa:	48 c7 c7 ff ff ff ff 	mov    $0xffffffffffffffff,%rdi
    6901:	31 f6                	xor    %esi,%esi
    6903:	ff 15 d7 d3 02 00    	callq  *0x2d3d7(%rip)        # 33ce0 <_GLOBAL_OFFSET_TABLE_+0x380>
    6909:	0f 0b                	ud2    
    690b:	be 01 00 00 00       	mov    $0x1,%esi
    6910:	48 89 df             	mov    %rbx,%rdi
    6913:	ff 15 97 d2 02 00    	callq  *0x2d297(%rip)        # 33bb0 <_GLOBAL_OFFSET_TABLE_+0x250>
    6919:	0f 0b                	ud2    
    691b:	48 89 c3             	mov    %rax,%rbx
    691e:	48 8d 7c 24 30       	lea    0x30(%rsp),%rdi
    6923:	e8 a8 e6 ff ff       	callq  4fd0 <_ZN4core3ptr18real_drop_in_place17h5cd56ca2e2d6b4ccE>
    6928:	48 8d bc 24 88 00 00 	lea    0x88(%rsp),%rdi
    692f:	00 
    6930:	e8 fb e4 ff ff       	callq  4e30 <_ZN4core3ptr18real_drop_in_place17h3c2720248ed3d593E>
    6935:	eb 0b                	jmp    6942 <_ZN3std3env7_var_os17h990cc4e5f3017189E+0x232>
    6937:	48 89 c3             	mov    %rax,%rbx
    693a:	48 89 e7             	mov    %rsp,%rdi
    693d:	e8 4e e7 ff ff       	callq  5090 <_ZN4core3ptr18real_drop_in_place17h83a59a75cb801d04E>
    6942:	48 89 df             	mov    %rbx,%rdi
    6945:	e8 66 d8 ff ff       	callq  41b0 <_Unwind_Resume@plt>
    694a:	0f 0b                	ud2    
    694c:	0f 1f 40 00          	nopl   0x0(%rax)

0000000000006950 <_ZN3std5error5Error5cause17h8b7a68f7922936b4E>:
    6950:	31 c0                	xor    %eax,%eax
    6952:	c3                   	retq   
    6953:	66 2e 0f 1f 84 00 00 	nopw   %cs:0x0(%rax,%rax,1)
    695a:	00 00 00 
    695d:	0f 1f 00             	nopl   (%rax)

0000000000006960 <_ZN3std5error5Error7type_id17h515bc5b3abe1c641E>:
    6960:	48 b8 23 b7 70 d3 e9 	movabs $0xfd55e3e9d370b723,%rax
    6967:	e3 55 fd 
    696a:	c3                   	retq   
    696b:	0f 1f 44 00 00       	nopl   0x0(%rax,%rax,1)

0000000000006970 <_ZN3std5error5Error9backtrace17hb09a5a95c8500f57E>:
    6970:	31 c0                	xor    %eax,%eax
    6972:	c3                   	retq   
    6973:	66 2e 0f 1f 84 00 00 	nopw   %cs:0x0(%rax,%rax,1)
    697a:	00 00 00 
    697d:	0f 1f 00             	nopl   (%rax)

0000000000006980 <_ZN243_$LT$std..error..$LT$impl$u20$core..convert..From$LT$alloc..string..String$GT$$u20$for$u20$alloc..boxed..Box$LT$dyn$u20$std..error..Error$u2b$core..marker..Send$u2b$core..marker..Sync$GT$$GT$..from..StringError$u20$as$u20$std..error..Error$GT$11description17h35819a4b19eebe15E>:
    6980:	48 8b 07             	mov    (%rdi),%rax
    6983:	48 8b 57 10          	mov    0x10(%rdi),%rdx
    6987:	c3                   	retq   
    6988:	0f 1f 84 00 00 00 00 	nopl   0x0(%rax,%rax,1)
    698f:	00 

0000000000006990 <_ZN244_$LT$std..error..$LT$impl$u20$core..convert..From$LT$alloc..string..String$GT$$u20$for$u20$alloc..boxed..Box$LT$dyn$u20$std..error..Error$u2b$core..marker..Send$u2b$core..marker..Sync$GT$$GT$..from..StringError$u20$as$u20$core..fmt..Display$GT$3fmt17h016660f3202f61a0E>:
    6990:	48 89 f2             	mov    %rsi,%rdx
    6993:	48 8b 07             	mov    (%rdi),%rax
    6996:	48 8b 77 10          	mov    0x10(%rdi),%rsi
    699a:	48 89 c7             	mov    %rax,%rdi
    699d:	ff 25 55 d1 02 00    	jmpq   *0x2d155(%rip)        # 33af8 <_GLOBAL_OFFSET_TABLE_+0x198>
    69a3:	66 2e 0f 1f 84 00 00 	nopw   %cs:0x0(%rax,%rax,1)
    69aa:	00 00 00 
    69ad:	0f 1f 00             	nopl   (%rax)

00000000000069b0 <_ZN242_$LT$std..error..$LT$impl$u20$core..convert..From$LT$alloc..string..String$GT$$u20$for$u20$alloc..boxed..Box$LT$dyn$u20$std..error..Error$u2b$core..marker..Send$u2b$core..marker..Sync$GT$$GT$..from..StringError$u20$as$u20$core..fmt..Debug$GT$3fmt17hda641d569239596eE>:
    69b0:	48 89 f2             	mov    %rsi,%rdx
    69b3:	48 8b 07             	mov    (%rdi),%rax
    69b6:	48 8b 77 10          	mov    0x10(%rdi),%rsi
    69ba:	48 89 c7             	mov    %rax,%rdi
    69bd:	ff 25 8d d1 02 00    	jmpq   *0x2d18d(%rip)        # 33b50 <_GLOBAL_OFFSET_TABLE_+0x1f0>
    69c3:	66 2e 0f 1f 84 00 00 	nopw   %cs:0x0(%rax,%rax,1)
    69ca:	00 00 00 
    69cd:	0f 1f 00             	nopl   (%rax)

00000000000069d0 <_ZN3std3ffi5c_str7CString3new17h8285c8f88e876ae7E>:
    69d0:	41 57                	push   %r15
    69d2:	41 56                	push   %r14
    69d4:	41 55                	push   %r13
    69d6:	41 54                	push   %r12
    69d8:	53                   	push   %rbx
    69d9:	48 83 ec 20          	sub    $0x20,%rsp
    69dd:	49 89 d6             	mov    %rdx,%r14
    69e0:	49 89 f4             	mov    %rsi,%r12
    69e3:	49 89 fd             	mov    %rdi,%r13
    69e6:	49 89 d7             	mov    %rdx,%r15
    69e9:	49 ff c7             	inc    %r15
    69ec:	75 35                	jne    6a23 <_ZN3std3ffi5c_str7CString3new17h8285c8f88e876ae7E+0x53>
    69ee:	49 c7 c7 ff ff ff ff 	mov    $0xffffffffffffffff,%r15
    69f5:	be 01 00 00 00       	mov    $0x1,%esi
    69fa:	48 c7 c7 ff ff ff ff 	mov    $0xffffffffffffffff,%rdi
    6a01:	ff 15 09 d2 02 00    	callq  *0x2d209(%rip)        # 33c10 <_GLOBAL_OFFSET_TABLE_+0x2b0>
    6a07:	48 89 c3             	mov    %rax,%rbx
    6a0a:	48 85 c0             	test   %rax,%rax
    6a0d:	75 2a                	jne    6a39 <_ZN3std3ffi5c_str7CString3new17h8285c8f88e876ae7E+0x69>
    6a0f:	be 01 00 00 00       	mov    $0x1,%esi
    6a14:	48 c7 c7 ff ff ff ff 	mov    $0xffffffffffffffff,%rdi
    6a1b:	ff 15 8f d1 02 00    	callq  *0x2d18f(%rip)        # 33bb0 <_GLOBAL_OFFSET_TABLE_+0x250>
    6a21:	0f 0b                	ud2    
    6a23:	be 01 00 00 00       	mov    $0x1,%esi
    6a28:	4c 89 ff             	mov    %r15,%rdi
    6a2b:	ff 15 df d1 02 00    	callq  *0x2d1df(%rip)        # 33c10 <_GLOBAL_OFFSET_TABLE_+0x2b0>
    6a31:	48 85 c0             	test   %rax,%rax
    6a34:	74 78                	je     6aae <_ZN3std3ffi5c_str7CString3new17h8285c8f88e876ae7E+0xde>
    6a36:	48 89 c3             	mov    %rax,%rbx
    6a39:	48 89 df             	mov    %rbx,%rdi
    6a3c:	4c 89 e6             	mov    %r12,%rsi
    6a3f:	4c 89 f2             	mov    %r14,%rdx
    6a42:	ff 15 58 d3 02 00    	callq  *0x2d358(%rip)        # 33da0 <memcpy@GLIBC_2.14>
    6a48:	48 89 df             	mov    %rbx,%rdi
    6a4b:	31 f6                	xor    %esi,%esi
    6a4d:	4c 89 f2             	mov    %r14,%rdx
    6a50:	ff 15 aa d2 02 00    	callq  *0x2d2aa(%rip)        # 33d00 <memchr@GLIBC_2.2.5>
    6a56:	48 85 c0             	test   %rax,%rax
    6a59:	74 1a                	je     6a75 <_ZN3std3ffi5c_str7CString3new17h8285c8f88e876ae7E+0xa5>
    6a5b:	48 29 d8             	sub    %rbx,%rax
    6a5e:	49 89 45 08          	mov    %rax,0x8(%r13)
    6a62:	49 89 5d 10          	mov    %rbx,0x10(%r13)
    6a66:	4d 89 7d 18          	mov    %r15,0x18(%r13)
    6a6a:	4d 89 75 20          	mov    %r14,0x20(%r13)
    6a6e:	b8 01 00 00 00       	mov    $0x1,%eax
    6a73:	eb 24                	jmp    6a99 <_ZN3std3ffi5c_str7CString3new17h8285c8f88e876ae7E+0xc9>
    6a75:	48 89 5c 24 08       	mov    %rbx,0x8(%rsp)
    6a7a:	4c 89 7c 24 10       	mov    %r15,0x10(%rsp)
    6a7f:	4c 89 74 24 18       	mov    %r14,0x18(%rsp)
    6a84:	48 8d 7c 24 08       	lea    0x8(%rsp),%rdi
    6a89:	ff 15 c9 d4 02 00    	callq  *0x2d4c9(%rip)        # 33f58 <_GLOBAL_OFFSET_TABLE_+0x5f8>
    6a8f:	49 89 45 08          	mov    %rax,0x8(%r13)
    6a93:	49 89 55 10          	mov    %rdx,0x10(%r13)
    6a97:	31 c0                	xor    %eax,%eax
    6a99:	49 89 45 00          	mov    %rax,0x0(%r13)
    6a9d:	4c 89 e8             	mov    %r13,%rax
    6aa0:	48 83 c4 20          	add    $0x20,%rsp
    6aa4:	5b                   	pop    %rbx
    6aa5:	41 5c                	pop    %r12
    6aa7:	41 5d                	pop    %r13
    6aa9:	41 5e                	pop    %r14
    6aab:	41 5f                	pop    %r15
    6aad:	c3                   	retq   
    6aae:	be 01 00 00 00       	mov    $0x1,%esi
    6ab3:	4c 89 ff             	mov    %r15,%rdi
    6ab6:	ff 15 f4 d0 02 00    	callq  *0x2d0f4(%rip)        # 33bb0 <_GLOBAL_OFFSET_TABLE_+0x250>
    6abc:	0f 0b                	ud2    
    6abe:	66 90                	xchg   %ax,%ax

0000000000006ac0 <_ZN3std3ffi5c_str7CString18from_vec_unchecked17h3de9c82136a4fc60E>:
    6ac0:	41 57                	push   %r15
    6ac2:	41 56                	push   %r14
    6ac4:	41 54                	push   %r12
    6ac6:	53                   	push   %rbx
    6ac7:	48 83 ec 18          	sub    $0x18,%rsp
    6acb:	49 89 ff             	mov    %rdi,%r15
    6ace:	48 8b 5f 08          	mov    0x8(%rdi),%rbx
    6ad2:	4c 8b 77 10          	mov    0x10(%rdi),%r14
    6ad6:	4c 39 f3             	cmp    %r14,%rbx
    6ad9:	75 4d                	jne    6b28 <_ZN3std3ffi5c_str7CString18from_vec_unchecked17h3de9c82136a4fc60E+0x68>
    6adb:	4c 89 f3             	mov    %r14,%rbx
    6ade:	48 ff c3             	inc    %rbx
    6ae1:	0f 84 4b 01 00 00    	je     6c32 <_ZN3std3ffi5c_str7CString18from_vec_unchecked17h3de9c82136a4fc60E+0x172>
    6ae7:	4d 85 f6             	test   %r14,%r14
    6aea:	74 1e                	je     6b0a <_ZN3std3ffi5c_str7CString18from_vec_unchecked17h3de9c82136a4fc60E+0x4a>
    6aec:	49 8b 3f             	mov    (%r15),%rdi
    6aef:	ba 01 00 00 00       	mov    $0x1,%edx
    6af4:	4c 89 f6             	mov    %r14,%rsi
    6af7:	48 89 d9             	mov    %rbx,%rcx
    6afa:	ff 15 a8 d4 02 00    	callq  *0x2d4a8(%rip)        # 33fa8 <_GLOBAL_OFFSET_TABLE_+0x648>
    6b00:	48 85 c0             	test   %rax,%rax
    6b03:	75 1c                	jne    6b21 <_ZN3std3ffi5c_str7CString18from_vec_unchecked17h3de9c82136a4fc60E+0x61>
    6b05:	e9 18 01 00 00       	jmpq   6c22 <_ZN3std3ffi5c_str7CString18from_vec_unchecked17h3de9c82136a4fc60E+0x162>
    6b0a:	be 01 00 00 00       	mov    $0x1,%esi
    6b0f:	48 89 df             	mov    %rbx,%rdi
    6b12:	ff 15 f8 d0 02 00    	callq  *0x2d0f8(%rip)        # 33c10 <_GLOBAL_OFFSET_TABLE_+0x2b0>
    6b18:	48 85 c0             	test   %rax,%rax
    6b1b:	0f 84 01 01 00 00    	je     6c22 <_ZN3std3ffi5c_str7CString18from_vec_unchecked17h3de9c82136a4fc60E+0x162>
    6b21:	49 89 07             	mov    %rax,(%r15)
    6b24:	49 89 5f 08          	mov    %rbx,0x8(%r15)
    6b28:	49 39 de             	cmp    %rbx,%r14
    6b2b:	75 3e                	jne    6b6b <_ZN3std3ffi5c_str7CString18from_vec_unchecked17h3de9c82136a4fc60E+0xab>
    6b2d:	4c 89 f3             	mov    %r14,%rbx
    6b30:	48 ff c3             	inc    %rbx
    6b33:	0f 84 01 01 00 00    	je     6c3a <_ZN3std3ffi5c_str7CString18from_vec_unchecked17h3de9c82136a4fc60E+0x17a>
    6b39:	4f 8d 24 36          	lea    (%r14,%r14,1),%r12
    6b3d:	49 39 dc             	cmp    %rbx,%r12
    6b40:	4c 0f 46 e3          	cmovbe %rbx,%r12
    6b44:	4d 85 f6             	test   %r14,%r14
    6b47:	74 7d                	je     6bc6 <_ZN3std3ffi5c_str7CString18from_vec_unchecked17h3de9c82136a4fc60E+0x106>
    6b49:	49 8b 3f             	mov    (%r15),%rdi
    6b4c:	ba 01 00 00 00       	mov    $0x1,%edx
    6b51:	4c 89 f6             	mov    %r14,%rsi
    6b54:	4c 89 e1             	mov    %r12,%rcx
    6b57:	ff 15 4b d4 02 00    	callq  *0x2d44b(%rip)        # 33fa8 <_GLOBAL_OFFSET_TABLE_+0x648>
    6b5d:	48 85 c0             	test   %rax,%rax
    6b60:	74 77                	je     6bd9 <_ZN3std3ffi5c_str7CString18from_vec_unchecked17h3de9c82136a4fc60E+0x119>
    6b62:	49 89 07             	mov    %rax,(%r15)
    6b65:	4d 89 67 08          	mov    %r12,0x8(%r15)
    6b69:	eb 07                	jmp    6b72 <_ZN3std3ffi5c_str7CString18from_vec_unchecked17h3de9c82136a4fc60E+0xb2>
    6b6b:	49 8b 07             	mov    (%r15),%rax
    6b6e:	49 8d 5e 01          	lea    0x1(%r14),%rbx
    6b72:	42 c6 04 30 00       	movb   $0x0,(%rax,%r14,1)
    6b77:	49 89 5f 10          	mov    %rbx,0x10(%r15)
    6b7b:	49 8b 07             	mov    (%r15),%rax
    6b7e:	48 89 04 24          	mov    %rax,(%rsp)
    6b82:	49 8b 47 08          	mov    0x8(%r15),%rax
    6b86:	48 89 44 24 08       	mov    %rax,0x8(%rsp)
    6b8b:	49 8b 5f 10          	mov    0x10(%r15),%rbx
    6b8f:	48 89 5c 24 10       	mov    %rbx,0x10(%rsp)
    6b94:	48 8b 74 24 08       	mov    0x8(%rsp),%rsi
    6b99:	48 39 de             	cmp    %rbx,%rsi
    6b9c:	74 71                	je     6c0f <_ZN3std3ffi5c_str7CString18from_vec_unchecked17h3de9c82136a4fc60E+0x14f>
    6b9e:	0f 82 9e 00 00 00    	jb     6c42 <_ZN3std3ffi5c_str7CString18from_vec_unchecked17h3de9c82136a4fc60E+0x182>
    6ba4:	48 85 db             	test   %rbx,%rbx
    6ba7:	74 40                	je     6be9 <_ZN3std3ffi5c_str7CString18from_vec_unchecked17h3de9c82136a4fc60E+0x129>
    6ba9:	48 8b 3c 24          	mov    (%rsp),%rdi
    6bad:	ba 01 00 00 00       	mov    $0x1,%edx
    6bb2:	48 89 d9             	mov    %rbx,%rcx
    6bb5:	ff 15 ed d3 02 00    	callq  *0x2d3ed(%rip)        # 33fa8 <_GLOBAL_OFFSET_TABLE_+0x648>
    6bbb:	48 85 c0             	test   %rax,%rax
    6bbe:	74 62                	je     6c22 <_ZN3std3ffi5c_str7CString18from_vec_unchecked17h3de9c82136a4fc60E+0x162>
    6bc0:	48 89 04 24          	mov    %rax,(%rsp)
    6bc4:	eb 41                	jmp    6c07 <_ZN3std3ffi5c_str7CString18from_vec_unchecked17h3de9c82136a4fc60E+0x147>
    6bc6:	be 01 00 00 00       	mov    $0x1,%esi
    6bcb:	4c 89 e7             	mov    %r12,%rdi
    6bce:	ff 15 3c d0 02 00    	callq  *0x2d03c(%rip)        # 33c10 <_GLOBAL_OFFSET_TABLE_+0x2b0>
    6bd4:	48 85 c0             	test   %rax,%rax
    6bd7:	75 89                	jne    6b62 <_ZN3std3ffi5c_str7CString18from_vec_unchecked17h3de9c82136a4fc60E+0xa2>
    6bd9:	be 01 00 00 00       	mov    $0x1,%esi
    6bde:	4c 89 e7             	mov    %r12,%rdi
    6be1:	ff 15 c9 cf 02 00    	callq  *0x2cfc9(%rip)        # 33bb0 <_GLOBAL_OFFSET_TABLE_+0x250>
    6be7:	0f 0b                	ud2    
    6be9:	48 85 f6             	test   %rsi,%rsi
    6bec:	74 0f                	je     6bfd <_ZN3std3ffi5c_str7CString18from_vec_unchecked17h3de9c82136a4fc60E+0x13d>
    6bee:	48 8b 3c 24          	mov    (%rsp),%rdi
    6bf2:	ba 01 00 00 00       	mov    $0x1,%edx
    6bf7:	ff 15 7b d0 02 00    	callq  *0x2d07b(%rip)        # 33c78 <_GLOBAL_OFFSET_TABLE_+0x318>
    6bfd:	48 c7 04 24 01 00 00 	movq   $0x1,(%rsp)
    6c04:	00 
    6c05:	31 db                	xor    %ebx,%ebx
    6c07:	48 89 5c 24 08       	mov    %rbx,0x8(%rsp)
    6c0c:	48 89 de             	mov    %rbx,%rsi
    6c0f:	48 8b 04 24          	mov    (%rsp),%rax
    6c13:	48 89 f2             	mov    %rsi,%rdx
    6c16:	48 83 c4 18          	add    $0x18,%rsp
    6c1a:	5b                   	pop    %rbx
    6c1b:	41 5c                	pop    %r12
    6c1d:	41 5e                	pop    %r14
    6c1f:	41 5f                	pop    %r15
    6c21:	c3                   	retq   
    6c22:	be 01 00 00 00       	mov    $0x1,%esi
    6c27:	48 89 df             	mov    %rbx,%rdi
    6c2a:	ff 15 80 cf 02 00    	callq  *0x2cf80(%rip)        # 33bb0 <_GLOBAL_OFFSET_TABLE_+0x250>
    6c30:	0f 0b                	ud2    
    6c32:	ff 15 a0 ce 02 00    	callq  *0x2cea0(%rip)        # 33ad8 <_GLOBAL_OFFSET_TABLE_+0x178>
    6c38:	eb 21                	jmp    6c5b <_ZN3std3ffi5c_str7CString18from_vec_unchecked17h3de9c82136a4fc60E+0x19b>
    6c3a:	ff 15 98 ce 02 00    	callq  *0x2ce98(%rip)        # 33ad8 <_GLOBAL_OFFSET_TABLE_+0x178>
    6c40:	eb 19                	jmp    6c5b <_ZN3std3ffi5c_str7CString18from_vec_unchecked17h3de9c82136a4fc60E+0x19b>
    6c42:	48 8d 3d 07 fb 01 00 	lea    0x1fb07(%rip),%rdi        # 26750 <_fini+0x15f4>
    6c49:	48 8d 15 f8 b5 02 00 	lea    0x2b5f8(%rip),%rdx        # 32248 <anon.2a2a8279f82dd18d5d6ec8aaf5193350.2.llvm.9782508449811801216+0x280>
    6c50:	be 24 00 00 00       	mov    $0x24,%esi
    6c55:	ff 15 45 cf 02 00    	callq  *0x2cf45(%rip)        # 33ba0 <_GLOBAL_OFFSET_TABLE_+0x240>
    6c5b:	0f 0b                	ud2    
    6c5d:	48 89 c3             	mov    %rax,%rbx
    6c60:	48 89 e7             	mov    %rsp,%rdi
    6c63:	eb 06                	jmp    6c6b <_ZN3std3ffi5c_str7CString18from_vec_unchecked17h3de9c82136a4fc60E+0x1ab>
    6c65:	48 89 c3             	mov    %rax,%rbx
    6c68:	4c 89 ff             	mov    %r15,%rdi
    6c6b:	e8 30 e0 ff ff       	callq  4ca0 <_ZN4core3ptr18real_drop_in_place17h0459fc0540f75304E>
    6c70:	48 89 df             	mov    %rbx,%rdi
    6c73:	e8 38 d5 ff ff       	callq  41b0 <_Unwind_Resume@plt>
    6c78:	0f 0b                	ud2    
    6c7a:	66 0f 1f 44 00 00    	nopw   0x0(%rax,%rax,1)

0000000000006c80 <_ZN3std3ffi5c_str104_$LT$impl$u20$core..convert..From$LT$std..ffi..c_str..NulError$GT$$u20$for$u20$std..io..error..Error$GT$4from17h06941e66cf298e64E>:
    6c80:	41 57                	push   %r15
    6c82:	41 56                	push   %r14
    6c84:	41 54                	push   %r12
    6c86:	53                   	push   %rbx
    6c87:	48 83 ec 18          	sub    $0x18,%rsp
    6c8b:	49 89 f6             	mov    %rsi,%r14
    6c8e:	49 89 ff             	mov    %rdi,%r15
    6c91:	bf 21 00 00 00       	mov    $0x21,%edi
    6c96:	be 01 00 00 00       	mov    $0x1,%esi
    6c9b:	ff 15 6f cf 02 00    	callq  *0x2cf6f(%rip)        # 33c10 <_GLOBAL_OFFSET_TABLE_+0x2b0>
    6ca1:	48 85 c0             	test   %rax,%rax
    6ca4:	0f 84 dc 00 00 00    	je     6d86 <_ZN3std3ffi5c_str104_$LT$impl$u20$core..convert..From$LT$std..ffi..c_str..NulError$GT$$u20$for$u20$std..io..error..Error$GT$4from17h06941e66cf298e64E+0x106>
    6caa:	49 89 c4             	mov    %rax,%r12
    6cad:	8a 05 15 fd 01 00    	mov    0x1fd15(%rip),%al        # 269c8 <_fini+0x186c>
    6cb3:	41 88 44 24 20       	mov    %al,0x20(%r12)
    6cb8:	0f 10 05 f9 fc 01 00 	movups 0x1fcf9(%rip),%xmm0        # 269b8 <_fini+0x185c>
    6cbf:	41 0f 11 44 24 10    	movups %xmm0,0x10(%r12)
    6cc5:	0f 10 05 dc fc 01 00 	movups 0x1fcdc(%rip),%xmm0        # 269a8 <_fini+0x184c>
    6ccc:	41 0f 11 04 24       	movups %xmm0,(%r12)
    6cd1:	bf 18 00 00 00       	mov    $0x18,%edi
    6cd6:	be 08 00 00 00       	mov    $0x8,%esi
    6cdb:	ff 15 2f cf 02 00    	callq  *0x2cf2f(%rip)        # 33c10 <_GLOBAL_OFFSET_TABLE_+0x2b0>
    6ce1:	48 85 c0             	test   %rax,%rax
    6ce4:	0f 84 8a 00 00 00    	je     6d74 <_ZN3std3ffi5c_str104_$LT$impl$u20$core..convert..From$LT$std..ffi..c_str..NulError$GT$$u20$for$u20$std..io..error..Error$GT$4from17h06941e66cf298e64E+0xf4>
    6cea:	48 89 c3             	mov    %rax,%rbx
    6ced:	4c 89 20             	mov    %r12,(%rax)
    6cf0:	48 c7 40 08 21 00 00 	movq   $0x21,0x8(%rax)
    6cf7:	00 
    6cf8:	48 c7 40 10 21 00 00 	movq   $0x21,0x10(%rax)
    6cff:	00 
    6d00:	bf 18 00 00 00       	mov    $0x18,%edi
    6d05:	be 08 00 00 00       	mov    $0x8,%esi
    6d0a:	ff 15 00 cf 02 00    	callq  *0x2cf00(%rip)        # 33c10 <_GLOBAL_OFFSET_TABLE_+0x2b0>
    6d10:	48 85 c0             	test   %rax,%rax
    6d13:	74 5f                	je     6d74 <_ZN3std3ffi5c_str104_$LT$impl$u20$core..convert..From$LT$std..ffi..c_str..NulError$GT$$u20$for$u20$std..io..error..Error$GT$4from17h06941e66cf298e64E+0xf4>
    6d15:	48 89 18             	mov    %rbx,(%rax)
    6d18:	48 8d 0d 59 b6 02 00 	lea    0x2b659(%rip),%rcx        # 32378 <anon.2a2a8279f82dd18d5d6ec8aaf5193350.2.llvm.9782508449811801216+0x3b0>
    6d1f:	48 89 48 08          	mov    %rcx,0x8(%rax)
    6d23:	c6 40 10 0b          	movb   $0xb,0x10(%rax)
    6d27:	8b 4c 24 11          	mov    0x11(%rsp),%ecx
    6d2b:	8b 54 24 14          	mov    0x14(%rsp),%edx
    6d2f:	89 48 11             	mov    %ecx,0x11(%rax)
    6d32:	89 50 14             	mov    %edx,0x14(%rax)
    6d35:	41 c6 07 02          	movb   $0x2,(%r15)
    6d39:	8b 4c 24 0a          	mov    0xa(%rsp),%ecx
    6d3d:	8b 54 24 0d          	mov    0xd(%rsp),%edx
    6d41:	41 89 4f 01          	mov    %ecx,0x1(%r15)
    6d45:	41 89 57 04          	mov    %edx,0x4(%r15)
    6d49:	49 89 47 08          	mov    %rax,0x8(%r15)
    6d4d:	49 8b 76 10          	mov    0x10(%r14),%rsi
    6d51:	48 85 f6             	test   %rsi,%rsi
    6d54:	74 0f                	je     6d65 <_ZN3std3ffi5c_str104_$LT$impl$u20$core..convert..From$LT$std..ffi..c_str..NulError$GT$$u20$for$u20$std..io..error..Error$GT$4from17h06941e66cf298e64E+0xe5>
    6d56:	49 8b 7e 08          	mov    0x8(%r14),%rdi
    6d5a:	ba 01 00 00 00       	mov    $0x1,%edx
    6d5f:	ff 15 13 cf 02 00    	callq  *0x2cf13(%rip)        # 33c78 <_GLOBAL_OFFSET_TABLE_+0x318>
    6d65:	4c 89 f8             	mov    %r15,%rax
    6d68:	48 83 c4 18          	add    $0x18,%rsp
    6d6c:	5b                   	pop    %rbx
    6d6d:	41 5c                	pop    %r12
    6d6f:	41 5e                	pop    %r14
    6d71:	41 5f                	pop    %r15
    6d73:	c3                   	retq   
    6d74:	bf 18 00 00 00       	mov    $0x18,%edi
    6d79:	be 08 00 00 00       	mov    $0x8,%esi
    6d7e:	ff 15 2c ce 02 00    	callq  *0x2ce2c(%rip)        # 33bb0 <_GLOBAL_OFFSET_TABLE_+0x250>
    6d84:	0f 0b                	ud2    
    6d86:	bf 21 00 00 00       	mov    $0x21,%edi
    6d8b:	be 01 00 00 00       	mov    $0x1,%esi
    6d90:	ff 15 1a ce 02 00    	callq  *0x2ce1a(%rip)        # 33bb0 <_GLOBAL_OFFSET_TABLE_+0x250>
    6d96:	0f 0b                	ud2    
    6d98:	0f 1f 84 00 00 00 00 	nopl   0x0(%rax,%rax,1)
    6d9f:	00 

0000000000006da0 <_ZN58_$LT$std..io..error..Error$u20$as$u20$core..fmt..Debug$GT$3fmt17hfaf119064059a45bE>:
    6da0:	ff 25 e2 cf 02 00    	jmpq   *0x2cfe2(%rip)        # 33d88 <_GLOBAL_OFFSET_TABLE_+0x428>
    6da6:	66 2e 0f 1f 84 00 00 	nopw   %cs:0x0(%rax,%rax,1)
    6dad:	00 00 00 

0000000000006db0 <_ZN57_$LT$std..io..error..Repr$u20$as$u20$core..fmt..Debug$GT$3fmt17hedb1f514b8c27fabE>:
    6db0:	41 57                	push   %r15
    6db2:	41 56                	push   %r14
    6db4:	53                   	push   %rbx
    6db5:	48 83 ec 30          	sub    $0x30,%rsp
    6db9:	0f b6 07             	movzbl (%rdi),%eax
    6dbc:	48 85 c0             	test   %rax,%rax
    6dbf:	0f 84 87 00 00 00    	je     6e4c <_ZN57_$LT$std..io..error..Repr$u20$as$u20$core..fmt..Debug$GT$3fmt17hedb1f514b8c27fabE+0x9c>
    6dc5:	48 83 f8 01          	cmp    $0x1,%rax
    6dc9:	0f 84 48 01 00 00    	je     6f17 <_ZN57_$LT$std..io..error..Repr$u20$as$u20$core..fmt..Debug$GT$3fmt17hedb1f514b8c27fabE+0x167>
    6dcf:	48 8b 5f 08          	mov    0x8(%rdi),%rbx
    6dd3:	4c 8d 7b 10          	lea    0x10(%rbx),%r15
    6dd7:	48 8d 15 10 01 02 00 	lea    0x20110(%rip),%rdx        # 26eee <_fini+0x1d92>
    6dde:	4c 8d 74 24 18       	lea    0x18(%rsp),%r14
    6de3:	b9 06 00 00 00       	mov    $0x6,%ecx
    6de8:	4c 89 f7             	mov    %r14,%rdi
    6deb:	ff 15 27 cd 02 00    	callq  *0x2cd27(%rip)        # 33b18 <_GLOBAL_OFFSET_TABLE_+0x1b8>
    6df1:	4c 89 7c 24 08       	mov    %r15,0x8(%rsp)
    6df6:	48 8d 35 8f f9 01 00 	lea    0x1f98f(%rip),%rsi        # 2678c <_fini+0x1630>
    6dfd:	4c 8d 05 94 ba 02 00 	lea    0x2ba94(%rip),%r8        # 32898 <anon.2a2a8279f82dd18d5d6ec8aaf5193350.2.llvm.9782508449811801216+0x8d0>
    6e04:	4c 8d 3d 65 a5 01 00 	lea    0x1a565(%rip),%r15        # 21370 <_ZN4core3fmt8builders11DebugStruct5field17hd133ba3348427b8fE>
    6e0b:	48 8d 4c 24 08       	lea    0x8(%rsp),%rcx
    6e10:	ba 04 00 00 00       	mov    $0x4,%edx
    6e15:	4c 89 f7             	mov    %r14,%rdi
    6e18:	41 ff d7             	callq  *%r15
    6e1b:	48 89 5c 24 08       	mov    %rbx,0x8(%rsp)
    6e20:	48 8d 35 c2 00 02 00 	lea    0x200c2(%rip),%rsi        # 26ee9 <_fini+0x1d8d>
    6e27:	4c 8d 05 8a ba 02 00 	lea    0x2ba8a(%rip),%r8        # 328b8 <anon.2a2a8279f82dd18d5d6ec8aaf5193350.2.llvm.9782508449811801216+0x8f0>
    6e2e:	48 8d 4c 24 08       	lea    0x8(%rsp),%rcx
    6e33:	ba 05 00 00 00       	mov    $0x5,%edx
    6e38:	4c 89 f7             	mov    %r14,%rdi
    6e3b:	41 ff d7             	callq  *%r15
    6e3e:	4c 89 f7             	mov    %r14,%rdi
    6e41:	ff 15 21 cd 02 00    	callq  *0x2cd21(%rip)        # 33b68 <_GLOBAL_OFFSET_TABLE_+0x208>
    6e47:	e9 0a 01 00 00       	jmpq   6f56 <_ZN57_$LT$std..io..error..Repr$u20$as$u20$core..fmt..Debug$GT$3fmt17hedb1f514b8c27fabE+0x1a6>
    6e4c:	8b 47 04             	mov    0x4(%rdi),%eax
    6e4f:	89 44 24 04          	mov    %eax,0x4(%rsp)
    6e53:	48 8d 15 78 fc 01 00 	lea    0x1fc78(%rip),%rdx        # 26ad2 <_fini+0x1976>
    6e5a:	48 8d 5c 24 08       	lea    0x8(%rsp),%rbx
    6e5f:	b9 02 00 00 00       	mov    $0x2,%ecx
    6e64:	48 89 df             	mov    %rbx,%rdi
    6e67:	ff 15 ab cc 02 00    	callq  *0x2ccab(%rip)        # 33b18 <_GLOBAL_OFFSET_TABLE_+0x1b8>
    6e6d:	48 8d 35 14 f9 01 00 	lea    0x1f914(%rip),%rsi        # 26788 <_fini+0x162c>
    6e74:	4c 8d 05 6d b5 02 00 	lea    0x2b56d(%rip),%r8        # 323e8 <anon.2a2a8279f82dd18d5d6ec8aaf5193350.2.llvm.9782508449811801216+0x420>
    6e7b:	4c 8d 3d ee a4 01 00 	lea    0x1a4ee(%rip),%r15        # 21370 <_ZN4core3fmt8builders11DebugStruct5field17hd133ba3348427b8fE>
    6e82:	48 8d 4c 24 04       	lea    0x4(%rsp),%rcx
    6e87:	ba 04 00 00 00       	mov    $0x4,%edx
    6e8c:	48 89 df             	mov    %rbx,%rdi
    6e8f:	41 ff d7             	callq  *%r15
    6e92:	48 89 c3             	mov    %rax,%rbx
    6e95:	8b 7c 24 04          	mov    0x4(%rsp),%edi
    6e99:	e8 22 62 00 00       	callq  d0c0 <_ZN3std3sys4unix17decode_error_kind17ha2cf842c10da4f3aE>
    6e9e:	88 44 24 03          	mov    %al,0x3(%rsp)
    6ea2:	48 8d 35 e3 f8 01 00 	lea    0x1f8e3(%rip),%rsi        # 2678c <_fini+0x1630>
    6ea9:	4c 8d 05 18 b5 02 00 	lea    0x2b518(%rip),%r8        # 323c8 <anon.2a2a8279f82dd18d5d6ec8aaf5193350.2.llvm.9782508449811801216+0x400>
    6eb0:	48 8d 4c 24 03       	lea    0x3(%rsp),%rcx
    6eb5:	ba 04 00 00 00       	mov    $0x4,%edx
    6eba:	48 89 df             	mov    %rbx,%rdi
    6ebd:	41 ff d7             	callq  *%r15
    6ec0:	48 89 c3             	mov    %rax,%rbx
    6ec3:	8b 74 24 04          	mov    0x4(%rsp),%esi
    6ec7:	4c 8d 74 24 18       	lea    0x18(%rsp),%r14
    6ecc:	4c 89 f7             	mov    %r14,%rdi
    6ecf:	e8 3c 5d 00 00       	callq  cc10 <_ZN3std3sys4unix2os12error_string17hfd0b0e76047c90a0E>
    6ed4:	48 8d 35 f9 fb 01 00 	lea    0x1fbf9(%rip),%rsi        # 26ad4 <_fini+0x1978>
    6edb:	4c 8d 05 26 b5 02 00 	lea    0x2b526(%rip),%r8        # 32408 <anon.2a2a8279f82dd18d5d6ec8aaf5193350.2.llvm.9782508449811801216+0x440>
    6ee2:	ba 07 00 00 00       	mov    $0x7,%edx
    6ee7:	48 89 df             	mov    %rbx,%rdi
    6eea:	4c 89 f1             	mov    %r14,%rcx
    6eed:	41 ff d7             	callq  *%r15
    6ef0:	48 89 c7             	mov    %rax,%rdi
    6ef3:	ff 15 6f cc 02 00    	callq  *0x2cc6f(%rip)        # 33b68 <_GLOBAL_OFFSET_TABLE_+0x208>
    6ef9:	89 c3                	mov    %eax,%ebx
    6efb:	48 8b 74 24 20       	mov    0x20(%rsp),%rsi
    6f00:	48 85 f6             	test   %rsi,%rsi
    6f03:	74 53                	je     6f58 <_ZN57_$LT$std..io..error..Repr$u20$as$u20$core..fmt..Debug$GT$3fmt17hedb1f514b8c27fabE+0x1a8>
    6f05:	48 8b 7c 24 18       	mov    0x18(%rsp),%rdi
    6f0a:	ba 01 00 00 00       	mov    $0x1,%edx
    6f0f:	ff 15 63 cd 02 00    	callq  *0x2cd63(%rip)        # 33c78 <_GLOBAL_OFFSET_TABLE_+0x318>
    6f15:	eb 41                	jmp    6f58 <_ZN57_$LT$std..io..error..Repr$u20$as$u20$core..fmt..Debug$GT$3fmt17hedb1f514b8c27fabE+0x1a8>
    6f17:	8a 47 01             	mov    0x1(%rdi),%al
    6f1a:	88 44 24 08          	mov    %al,0x8(%rsp)
    6f1e:	48 8d 15 5f f8 01 00 	lea    0x1f85f(%rip),%rdx        # 26784 <_fini+0x1628>
    6f25:	48 8d 5c 24 18       	lea    0x18(%rsp),%rbx
    6f2a:	b9 04 00 00 00       	mov    $0x4,%ecx
    6f2f:	48 89 df             	mov    %rbx,%rdi
    6f32:	ff 15 78 cd 02 00    	callq  *0x2cd78(%rip)        # 33cb0 <_GLOBAL_OFFSET_TABLE_+0x350>
    6f38:	48 8d 15 89 b4 02 00 	lea    0x2b489(%rip),%rdx        # 323c8 <anon.2a2a8279f82dd18d5d6ec8aaf5193350.2.llvm.9782508449811801216+0x400>
    6f3f:	48 8d 74 24 08       	lea    0x8(%rsp),%rsi
    6f44:	48 89 df             	mov    %rbx,%rdi
    6f47:	ff 15 cb cd 02 00    	callq  *0x2cdcb(%rip)        # 33d18 <_GLOBAL_OFFSET_TABLE_+0x3b8>
    6f4d:	48 89 c7             	mov    %rax,%rdi
    6f50:	ff 15 92 cd 02 00    	callq  *0x2cd92(%rip)        # 33ce8 <_GLOBAL_OFFSET_TABLE_+0x388>
    6f56:	89 c3                	mov    %eax,%ebx
    6f58:	89 d8                	mov    %ebx,%eax
    6f5a:	48 83 c4 30          	add    $0x30,%rsp
    6f5e:	5b                   	pop    %rbx
    6f5f:	41 5e                	pop    %r14
    6f61:	41 5f                	pop    %r15
    6f63:	c3                   	retq   
    6f64:	48 89 c3             	mov    %rax,%rbx
    6f67:	48 8d 7c 24 18       	lea    0x18(%rsp),%rdi
    6f6c:	e8 2f dd ff ff       	callq  4ca0 <_ZN4core3ptr18real_drop_in_place17h0459fc0540f75304E>
    6f71:	48 89 df             	mov    %rbx,%rdi
    6f74:	e8 37 d2 ff ff       	callq  41b0 <_Unwind_Resume@plt>
    6f79:	0f 0b                	ud2    
    6f7b:	0f 1f 44 00 00       	nopl   0x0(%rax,%rax,1)

0000000000006f80 <_ZN60_$LT$std..io..error..Error$u20$as$u20$core..fmt..Display$GT$3fmt17h7f90692e2bcc334bE>:
    6f80:	41 56                	push   %r14
    6f82:	53                   	push   %rbx
    6f83:	48 83 ec 78          	sub    $0x78,%rsp
    6f87:	49 89 f6             	mov    %rsi,%r14
    6f8a:	0f b6 07             	movzbl (%rdi),%eax
    6f8d:	48 85 c0             	test   %rax,%rax
    6f90:	74 52                	je     6fe4 <_ZN60_$LT$std..io..error..Error$u20$as$u20$core..fmt..Display$GT$3fmt17h7f90692e2bcc334bE+0x64>
    6f92:	48 83 f8 01          	cmp    $0x1,%rax
    6f96:	74 1b                	je     6fb3 <_ZN60_$LT$std..io..error..Error$u20$as$u20$core..fmt..Display$GT$3fmt17h7f90692e2bcc334bE+0x33>
    6f98:	48 8b 47 08          	mov    0x8(%rdi),%rax
    6f9c:	48 8b 38             	mov    (%rax),%rdi
    6f9f:	48 8b 40 08          	mov    0x8(%rax),%rax
    6fa3:	48 8b 40 40          	mov    0x40(%rax),%rax
    6fa7:	4c 89 f6             	mov    %r14,%rsi
    6faa:	48 83 c4 78          	add    $0x78,%rsp
    6fae:	5b                   	pop    %rbx
    6faf:	41 5e                	pop    %r14
    6fb1:	ff e0                	jmpq   *%rax
    6fb3:	0f b6 57 01          	movzbl 0x1(%rdi),%edx
    6fb7:	48 8d 05 0b fa 01 00 	lea    0x1fa0b(%rip),%rax        # 269c9 <_fini+0x186d>
    6fbe:	b9 16 00 00 00       	mov    $0x16,%ecx
    6fc3:	48 8d 35 26 f1 01 00 	lea    0x1f126(%rip),%rsi        # 260f0 <_fini+0xf94>
    6fca:	48 63 14 96          	movslq (%rsi,%rdx,4),%rdx
    6fce:	48 01 f2             	add    %rsi,%rdx
    6fd1:	ff e2                	jmpq   *%rdx
    6fd3:	48 8d 05 96 f0 01 00 	lea    0x1f096(%rip),%rax        # 26070 <_fini+0xf14>
    6fda:	b9 10 00 00 00       	mov    $0x10,%ecx
    6fdf:	e9 8a 01 00 00       	jmpq   716e <_ZN60_$LT$std..io..error..Error$u20$as$u20$core..fmt..Display$GT$3fmt17h7f90692e2bcc334bE+0x1ee>
    6fe4:	8b 77 04             	mov    0x4(%rdi),%esi
    6fe7:	89 74 24 0c          	mov    %esi,0xc(%rsp)
    6feb:	48 8d 5c 24 10       	lea    0x10(%rsp),%rbx
    6ff0:	48 89 df             	mov    %rbx,%rdi
    6ff3:	e8 18 5c 00 00       	callq  cc10 <_ZN3std3sys4unix2os12error_string17hfd0b0e76047c90a0E>
    6ff8:	48 89 5c 24 28       	mov    %rbx,0x28(%rsp)
    6ffd:	48 8d 05 5c e8 ff ff 	lea    -0x17a4(%rip),%rax        # 5860 <_ZN60_$LT$alloc..string..String$u20$as$u20$core..fmt..Display$GT$3fmt17hb5e83c26273451adE>
    7004:	48 89 44 24 30       	mov    %rax,0x30(%rsp)
    7009:	48 8d 44 24 0c       	lea    0xc(%rsp),%rax
    700e:	48 89 44 24 38       	mov    %rax,0x38(%rsp)
    7013:	48 8d 05 46 cb 01 00 	lea    0x1cb46(%rip),%rax        # 23b60 <_ZN4core3fmt3num3imp52_$LT$impl$u20$core..fmt..Display$u20$for$u20$i32$GT$3fmt17h5236cb37b4e47e04E>
    701a:	48 89 44 24 40       	mov    %rax,0x40(%rsp)
    701f:	48 8d 05 02 b4 02 00 	lea    0x2b402(%rip),%rax        # 32428 <anon.2a2a8279f82dd18d5d6ec8aaf5193350.2.llvm.9782508449811801216+0x460>
    7026:	48 89 44 24 48       	mov    %rax,0x48(%rsp)
    702b:	48 c7 44 24 50 03 00 	movq   $0x3,0x50(%rsp)
    7032:	00 00 
    7034:	48 c7 44 24 58 00 00 	movq   $0x0,0x58(%rsp)
    703b:	00 00 
    703d:	48 8d 44 24 28       	lea    0x28(%rsp),%rax
    7042:	48 89 44 24 68       	mov    %rax,0x68(%rsp)
    7047:	48 c7 44 24 70 02 00 	movq   $0x2,0x70(%rsp)
    704e:	00 00 
    7050:	48 8d 74 24 48       	lea    0x48(%rsp),%rsi
    7055:	4c 89 f7             	mov    %r14,%rdi
    7058:	ff 15 82 cf 02 00    	callq  *0x2cf82(%rip)        # 33fe0 <_GLOBAL_OFFSET_TABLE_+0x680>
    705e:	89 c3                	mov    %eax,%ebx
    7060:	48 8b 74 24 18       	mov    0x18(%rsp),%rsi
    7065:	48 85 f6             	test   %rsi,%rsi
    7068:	0f 84 61 01 00 00    	je     71cf <_ZN60_$LT$std..io..error..Error$u20$as$u20$core..fmt..Display$GT$3fmt17h7f90692e2bcc334bE+0x24f>
    706e:	48 8b 7c 24 10       	mov    0x10(%rsp),%rdi
    7073:	ba 01 00 00 00       	mov    $0x1,%edx
    7078:	ff 15 fa cb 02 00    	callq  *0x2cbfa(%rip)        # 33c78 <_GLOBAL_OFFSET_TABLE_+0x318>
    707e:	e9 4c 01 00 00       	jmpq   71cf <_ZN60_$LT$std..io..error..Error$u20$as$u20$core..fmt..Display$GT$3fmt17h7f90692e2bcc334bE+0x24f>
    7083:	48 8d 05 37 fa 01 00 	lea    0x1fa37(%rip),%rax        # 26ac1 <_fini+0x1965>
    708a:	b9 11 00 00 00       	mov    $0x11,%ecx
    708f:	e9 da 00 00 00       	jmpq   716e <_ZN60_$LT$std..io..error..Error$u20$as$u20$core..fmt..Display$GT$3fmt17h7f90692e2bcc334bE+0x1ee>
    7094:	48 8d 05 14 fa 01 00 	lea    0x1fa14(%rip),%rax        # 26aaf <_fini+0x1953>
    709b:	b9 12 00 00 00       	mov    $0x12,%ecx
    70a0:	e9 c9 00 00 00       	jmpq   716e <_ZN60_$LT$std..io..error..Error$u20$as$u20$core..fmt..Display$GT$3fmt17h7f90692e2bcc334bE+0x1ee>
    70a5:	48 8d 05 b4 ef 01 00 	lea    0x1efb4(%rip),%rax        # 26060 <_fini+0xf04>
    70ac:	b9 10 00 00 00       	mov    $0x10,%ecx
    70b1:	e9 b8 00 00 00       	jmpq   716e <_ZN60_$LT$std..io..error..Error$u20$as$u20$core..fmt..Display$GT$3fmt17h7f90692e2bcc334bE+0x1ee>
    70b6:	48 8d 05 e0 f9 01 00 	lea    0x1f9e0(%rip),%rax        # 26a9d <_fini+0x1941>
    70bd:	b9 12 00 00 00       	mov    $0x12,%ecx
    70c2:	e9 a7 00 00 00       	jmpq   716e <_ZN60_$LT$std..io..error..Error$u20$as$u20$core..fmt..Display$GT$3fmt17h7f90692e2bcc334bE+0x1ee>
    70c7:	48 8d 05 c2 f9 01 00 	lea    0x1f9c2(%rip),%rax        # 26a90 <_fini+0x1934>
    70ce:	b9 0d 00 00 00       	mov    $0xd,%ecx
    70d3:	e9 96 00 00 00       	jmpq   716e <_ZN60_$LT$std..io..error..Error$u20$as$u20$core..fmt..Display$GT$3fmt17h7f90692e2bcc334bE+0x1ee>
    70d8:	48 8d 05 a3 f9 01 00 	lea    0x1f9a3(%rip),%rax        # 26a82 <_fini+0x1926>
    70df:	e9 85 00 00 00       	jmpq   7169 <_ZN60_$LT$std..io..error..Error$u20$as$u20$core..fmt..Display$GT$3fmt17h7f90692e2bcc334bE+0x1e9>
    70e4:	48 8d 05 82 f9 01 00 	lea    0x1f982(%rip),%rax        # 26a6d <_fini+0x1911>
    70eb:	b9 15 00 00 00       	mov    $0x15,%ecx
    70f0:	eb 7c                	jmp    716e <_ZN60_$LT$std..io..error..Error$u20$as$u20$core..fmt..Display$GT$3fmt17h7f90692e2bcc334bE+0x1ee>
    70f2:	48 8d 05 69 f9 01 00 	lea    0x1f969(%rip),%rax        # 26a62 <_fini+0x1906>
    70f9:	b9 0b 00 00 00       	mov    $0xb,%ecx
    70fe:	eb 6e                	jmp    716e <_ZN60_$LT$std..io..error..Error$u20$as$u20$core..fmt..Display$GT$3fmt17h7f90692e2bcc334bE+0x1ee>
    7100:	48 8d 05 46 f9 01 00 	lea    0x1f946(%rip),%rax        # 26a4d <_fini+0x18f1>
    7107:	b9 15 00 00 00       	mov    $0x15,%ecx
    710c:	eb 60                	jmp    716e <_ZN60_$LT$std..io..error..Error$u20$as$u20$core..fmt..Display$GT$3fmt17h7f90692e2bcc334bE+0x1ee>
    710e:	48 8d 05 23 f9 01 00 	lea    0x1f923(%rip),%rax        # 26a38 <_fini+0x18dc>
    7115:	b9 15 00 00 00       	mov    $0x15,%ecx
    711a:	eb 52                	jmp    716e <_ZN60_$LT$std..io..error..Error$u20$as$u20$core..fmt..Display$GT$3fmt17h7f90692e2bcc334bE+0x1ee>
    711c:	48 8d 05 fe f8 01 00 	lea    0x1f8fe(%rip),%rax        # 26a21 <_fini+0x18c5>
    7123:	b9 17 00 00 00       	mov    $0x17,%ecx
    7128:	eb 44                	jmp    716e <_ZN60_$LT$std..io..error..Error$u20$as$u20$core..fmt..Display$GT$3fmt17h7f90692e2bcc334bE+0x1ee>
    712a:	48 8d 05 e4 f8 01 00 	lea    0x1f8e4(%rip),%rax        # 26a15 <_fini+0x18b9>
    7131:	b9 0c 00 00 00       	mov    $0xc,%ecx
    7136:	eb 36                	jmp    716e <_ZN60_$LT$std..io..error..Error$u20$as$u20$core..fmt..Display$GT$3fmt17h7f90692e2bcc334bE+0x1ee>
    7138:	48 8d 05 cd f8 01 00 	lea    0x1f8cd(%rip),%rax        # 26a0c <_fini+0x18b0>
    713f:	b9 09 00 00 00       	mov    $0x9,%ecx
    7144:	eb 28                	jmp    716e <_ZN60_$LT$std..io..error..Error$u20$as$u20$core..fmt..Display$GT$3fmt17h7f90692e2bcc334bE+0x1ee>
    7146:	48 8d 05 b5 f8 01 00 	lea    0x1f8b5(%rip),%rax        # 26a02 <_fini+0x18a6>
    714d:	b9 0a 00 00 00       	mov    $0xa,%ecx
    7152:	eb 1a                	jmp    716e <_ZN60_$LT$std..io..error..Error$u20$as$u20$core..fmt..Display$GT$3fmt17h7f90692e2bcc334bE+0x1ee>
    7154:	48 8d 05 92 f8 01 00 	lea    0x1f892(%rip),%rax        # 269ed <_fini+0x1891>
    715b:	b9 15 00 00 00       	mov    $0x15,%ecx
    7160:	eb 0c                	jmp    716e <_ZN60_$LT$std..io..error..Error$u20$as$u20$core..fmt..Display$GT$3fmt17h7f90692e2bcc334bE+0x1ee>
    7162:	48 8d 05 76 f8 01 00 	lea    0x1f876(%rip),%rax        # 269df <_fini+0x1883>
    7169:	b9 0e 00 00 00       	mov    $0xe,%ecx
    716e:	48 89 44 24 28       	mov    %rax,0x28(%rsp)
    7173:	48 89 4c 24 30       	mov    %rcx,0x30(%rsp)
    7178:	48 8d 44 24 28       	lea    0x28(%rsp),%rax
    717d:	48 89 44 24 10       	mov    %rax,0x10(%rsp)
    7182:	48 8d 05 77 d6 ff ff 	lea    -0x2989(%rip),%rax        # 4800 <_ZN44_$LT$$RF$T$u20$as$u20$core..fmt..Display$GT$3fmt17hce296db0c639805bE>
    7189:	48 89 44 24 18       	mov    %rax,0x18(%rsp)
    718e:	48 8d 05 53 ae 02 00 	lea    0x2ae53(%rip),%rax        # 31fe8 <anon.2a2a8279f82dd18d5d6ec8aaf5193350.2.llvm.9782508449811801216+0x20>
    7195:	48 89 44 24 48       	mov    %rax,0x48(%rsp)
    719a:	48 c7 44 24 50 01 00 	movq   $0x1,0x50(%rsp)
    71a1:	00 00 
    71a3:	48 c7 44 24 58 00 00 	movq   $0x0,0x58(%rsp)
    71aa:	00 00 
    71ac:	48 8d 44 24 10       	lea    0x10(%rsp),%rax
    71b1:	48 89 44 24 68       	mov    %rax,0x68(%rsp)
    71b6:	48 c7 44 24 70 01 00 	movq   $0x1,0x70(%rsp)
    71bd:	00 00 
    71bf:	48 8d 74 24 48       	lea    0x48(%rsp),%rsi
    71c4:	4c 89 f7             	mov    %r14,%rdi
    71c7:	ff 15 13 ce 02 00    	callq  *0x2ce13(%rip)        # 33fe0 <_GLOBAL_OFFSET_TABLE_+0x680>
    71cd:	89 c3                	mov    %eax,%ebx
    71cf:	89 d8                	mov    %ebx,%eax
    71d1:	48 83 c4 78          	add    $0x78,%rsp
    71d5:	5b                   	pop    %rbx
    71d6:	41 5e                	pop    %r14
    71d8:	c3                   	retq   
    71d9:	48 89 c3             	mov    %rax,%rbx
    71dc:	48 8d 7c 24 10       	lea    0x10(%rsp),%rdi
    71e1:	e8 ba da ff ff       	callq  4ca0 <_ZN4core3ptr18real_drop_in_place17h0459fc0540f75304E>
    71e6:	48 89 df             	mov    %rbx,%rdi
    71e9:	e8 c2 cf ff ff       	callq  41b0 <_Unwind_Resume@plt>
    71ee:	0f 0b                	ud2    

00000000000071f0 <_ZN3std2io5impls71_$LT$impl$u20$std..io..Write$u20$for$u20$alloc..boxed..Box$LT$W$GT$$GT$5write17hdb101bc69b4e2216E>:
    71f0:	53                   	push   %rbx
    71f1:	48 89 fb             	mov    %rdi,%rbx
    71f4:	48 8b 06             	mov    (%rsi),%rax
    71f7:	4c 8b 46 08          	mov    0x8(%rsi),%r8
    71fb:	48 89 c6             	mov    %rax,%rsi
    71fe:	41 ff 50 18          	callq  *0x18(%r8)
    7202:	48 89 d8             	mov    %rbx,%rax
    7205:	5b                   	pop    %rbx
    7206:	c3                   	retq   
    7207:	66 0f 1f 84 00 00 00 	nopw   0x0(%rax,%rax,1)
    720e:	00 00 

0000000000007210 <_ZN3std2io5impls71_$LT$impl$u20$std..io..Write$u20$for$u20$alloc..boxed..Box$LT$W$GT$$GT$14write_vectored17haa38a94e1d3c9706E>:
    7210:	53                   	push   %rbx
    7211:	48 89 fb             	mov    %rdi,%rbx
    7214:	48 8b 06             	mov    (%rsi),%rax
    7217:	4c 8b 46 08          	mov    0x8(%rsi),%r8
    721b:	48 89 c6             	mov    %rax,%rsi
    721e:	41 ff 50 20          	callq  *0x20(%r8)
    7222:	48 89 d8             	mov    %rbx,%rax
    7225:	5b                   	pop    %rbx
    7226:	c3                   	retq   
    7227:	66 0f 1f 84 00 00 00 	nopw   0x0(%rax,%rax,1)
    722e:	00 00 

0000000000007230 <_ZN3std2io5impls71_$LT$impl$u20$std..io..Write$u20$for$u20$alloc..boxed..Box$LT$W$GT$$GT$5flush17h6560afd17935ceedE>:
    7230:	53                   	push   %rbx
    7231:	48 89 fb             	mov    %rdi,%rbx
    7234:	48 8b 06             	mov    (%rsi),%rax
    7237:	48 8b 4e 08          	mov    0x8(%rsi),%rcx
    723b:	48 89 c6             	mov    %rax,%rsi
    723e:	ff 51 28             	callq  *0x28(%rcx)
    7241:	48 89 d8             	mov    %rbx,%rax
    7244:	5b                   	pop    %rbx
    7245:	c3                   	retq   
    7246:	66 2e 0f 1f 84 00 00 	nopw   %cs:0x0(%rax,%rax,1)
    724d:	00 00 00 

0000000000007250 <_ZN3std2io5impls71_$LT$impl$u20$std..io..Write$u20$for$u20$alloc..boxed..Box$LT$W$GT$$GT$9write_all17h469f041926c81b3dE>:
    7250:	53                   	push   %rbx
    7251:	48 89 fb             	mov    %rdi,%rbx
    7254:	48 8b 06             	mov    (%rsi),%rax
    7257:	4c 8b 46 08          	mov    0x8(%rsi),%r8
    725b:	48 89 c6             	mov    %rax,%rsi
    725e:	41 ff 50 30          	callq  *0x30(%r8)
    7262:	48 89 d8             	mov    %rbx,%rax
    7265:	5b                   	pop    %rbx
    7266:	c3                   	retq   
    7267:	66 0f 1f 84 00 00 00 	nopw   0x0(%rax,%rax,1)
    726e:	00 00 

0000000000007270 <_ZN3std2io5impls71_$LT$impl$u20$std..io..Write$u20$for$u20$alloc..boxed..Box$LT$W$GT$$GT$9write_fmt17hc8edee06db02dd47E>:
    7270:	53                   	push   %rbx
    7271:	48 83 ec 30          	sub    $0x30,%rsp
    7275:	48 89 fb             	mov    %rdi,%rbx
    7278:	48 8b 06             	mov    (%rsi),%rax
    727b:	48 8b 4e 08          	mov    0x8(%rsi),%rcx
    727f:	0f 10 02             	movups (%rdx),%xmm0
    7282:	0f 10 4a 10          	movups 0x10(%rdx),%xmm1
    7286:	0f 10 52 20          	movups 0x20(%rdx),%xmm2
    728a:	0f 29 54 24 20       	movaps %xmm2,0x20(%rsp)
    728f:	0f 29 4c 24 10       	movaps %xmm1,0x10(%rsp)
    7294:	0f 29 04 24          	movaps %xmm0,(%rsp)
    7298:	48 89 e2             	mov    %rsp,%rdx
    729b:	48 89 c6             	mov    %rax,%rsi
    729e:	ff 51 38             	callq  *0x38(%rcx)
    72a1:	48 89 d8             	mov    %rbx,%rax
    72a4:	48 83 c4 30          	add    $0x30,%rsp
    72a8:	5b                   	pop    %rbx
    72a9:	c3                   	retq   
    72aa:	66 0f 1f 44 00 00    	nopw   0x0(%rax,%rax,1)

00000000000072b0 <_ZN60_$LT$std..io..stdio..StderrRaw$u20$as$u20$std..io..Write$GT$5flush17h9ca621969f43ce8eE>:
    72b0:	48 89 f8             	mov    %rdi,%rax
    72b3:	c6 07 03             	movb   $0x3,(%rdi)
    72b6:	c3                   	retq   
    72b7:	66 0f 1f 84 00 00 00 	nopw   0x0(%rax,%rax,1)
    72be:	00 00 

00000000000072c0 <_ZN3std2io5stdio6stderr17h2320c95d3642fba6E>:
    72c0:	55                   	push   %rbp
    72c1:	41 56                	push   %r14
    72c3:	53                   	push   %rbx
    72c4:	48 83 ec 30          	sub    $0x30,%rsp
    72c8:	48 8d 1d 91 cd 02 00 	lea    0x2cd91(%rip),%rbx        # 34060 <_ZN3std2io5stdio6stderr8INSTANCE17hf8b34891d284e8e7E>
    72cf:	48 89 df             	mov    %rbx,%rdi
    72d2:	ff 15 f8 cc 02 00    	callq  *0x2ccf8(%rip)        # 33fd0 <pthread_mutex_lock@GLIBC_2.2.5>
    72d8:	48 89 5c 24 18       	mov    %rbx,0x18(%rsp)
    72dd:	48 8b 05 a4 cd 02 00 	mov    0x2cda4(%rip),%rax        # 34088 <_ZN3std2io5stdio6stderr8INSTANCE17hf8b34891d284e8e7E+0x28>
    72e4:	48 83 f8 01          	cmp    $0x1,%rax
    72e8:	0f 84 3e 01 00 00    	je     742c <_ZN3std2io5stdio6stderr17h2320c95d3642fba6E+0x16c>
    72ee:	48 85 c0             	test   %rax,%rax
    72f1:	0f 85 39 01 00 00    	jne    7430 <_ZN3std2io5stdio6stderr17h2320c95d3642fba6E+0x170>
    72f7:	bf 08 00 00 00       	mov    $0x8,%edi
    72fc:	be 08 00 00 00       	mov    $0x8,%esi
    7301:	ff 15 09 c9 02 00    	callq  *0x2c909(%rip)        # 33c10 <_GLOBAL_OFFSET_TABLE_+0x2b0>
    7307:	48 85 c0             	test   %rax,%rax
    730a:	0f 84 61 01 00 00    	je     7471 <_ZN3std2io5stdio6stderr17h2320c95d3642fba6E+0x1b1>
    7310:	48 89 18             	mov    %rbx,(%rax)
    7313:	48 8d 35 5e b3 02 00 	lea    0x2b35e(%rip),%rsi        # 32678 <anon.2a2a8279f82dd18d5d6ec8aaf5193350.2.llvm.9782508449811801216+0x6b0>
    731a:	48 89 c7             	mov    %rax,%rdi
    731d:	e8 be 23 00 00       	callq  96e0 <_ZN3std10sys_common11at_exit_imp4push17he99873a54434f73aE>
    7322:	41 89 c6             	mov    %eax,%r14d
    7325:	bf 28 00 00 00       	mov    $0x28,%edi
    732a:	be 08 00 00 00       	mov    $0x8,%esi
    732f:	ff 15 db c8 02 00    	callq  *0x2c8db(%rip)        # 33c10 <_GLOBAL_OFFSET_TABLE_+0x2b0>
    7335:	48 85 c0             	test   %rax,%rax
    7338:	0f 84 3e 01 00 00    	je     747c <_ZN3std2io5stdio6stderr17h2320c95d3642fba6E+0x1bc>
    733e:	48 89 c5             	mov    %rax,%rbp
    7341:	0f 57 c0             	xorps  %xmm0,%xmm0
    7344:	0f 11 40 10          	movups %xmm0,0x10(%rax)
    7348:	0f 11 00             	movups %xmm0,(%rax)
    734b:	48 c7 40 20 00 00 00 	movq   $0x0,0x20(%rax)
    7352:	00 
    7353:	48 8d 5c 24 20       	lea    0x20(%rsp),%rbx
    7358:	48 89 df             	mov    %rbx,%rdi
    735b:	ff 15 df c8 02 00    	callq  *0x2c8df(%rip)        # 33c40 <pthread_mutexattr_init@GLIBC_2.2.5>
    7361:	48 89 df             	mov    %rbx,%rdi
    7364:	be 01 00 00 00       	mov    $0x1,%esi
    7369:	ff 15 99 ca 02 00    	callq  *0x2ca99(%rip)        # 33e08 <pthread_mutexattr_settype@GLIBC_2.2.5>
    736f:	48 89 ef             	mov    %rbp,%rdi
    7372:	48 89 de             	mov    %rbx,%rsi
    7375:	ff 15 3d cc 02 00    	callq  *0x2cc3d(%rip)        # 33fb8 <pthread_mutex_init@GLIBC_2.2.5>
    737b:	48 89 df             	mov    %rbx,%rdi
    737e:	ff 15 64 c8 02 00    	callq  *0x2c864(%rip)        # 33be8 <pthread_mutexattr_destroy@GLIBC_2.2.5>
    7384:	8b 44 24 20          	mov    0x20(%rsp),%eax
    7388:	8b 4c 24 23          	mov    0x23(%rsp),%ecx
    738c:	89 44 24 10          	mov    %eax,0x10(%rsp)
    7390:	89 4c 24 13          	mov    %ecx,0x13(%rsp)
    7394:	8b 44 24 29          	mov    0x29(%rsp),%eax
    7398:	8b 4c 24 2c          	mov    0x2c(%rsp),%ecx
    739c:	89 44 24 08          	mov    %eax,0x8(%rsp)
    73a0:	89 4c 24 0b          	mov    %ecx,0xb(%rsp)
    73a4:	bf 30 00 00 00       	mov    $0x30,%edi
    73a9:	be 08 00 00 00       	mov    $0x8,%esi
    73ae:	ff 15 5c c8 02 00    	callq  *0x2c85c(%rip)        # 33c10 <_GLOBAL_OFFSET_TABLE_+0x2b0>
    73b4:	48 85 c0             	test   %rax,%rax
    73b7:	0f 84 c6 00 00 00    	je     7483 <_ZN3std2io5stdio6stderr17h2320c95d3642fba6E+0x1c3>
    73bd:	48 89 c3             	mov    %rax,%rbx
    73c0:	48 c7 00 01 00 00 00 	movq   $0x1,(%rax)
    73c7:	48 c7 40 08 01 00 00 	movq   $0x1,0x8(%rax)
    73ce:	00 
    73cf:	48 89 68 10          	mov    %rbp,0x10(%rax)
    73d3:	48 c7 40 18 00 00 00 	movq   $0x0,0x18(%rax)
    73da:	00 
    73db:	c6 40 20 00          	movb   $0x0,0x20(%rax)
    73df:	8b 44 24 10          	mov    0x10(%rsp),%eax
    73e3:	8b 4c 24 13          	mov    0x13(%rsp),%ecx
    73e7:	89 43 21             	mov    %eax,0x21(%rbx)
    73ea:	89 4b 24             	mov    %ecx,0x24(%rbx)
    73ed:	c6 43 28 00          	movb   $0x0,0x28(%rbx)
    73f1:	8b 44 24 08          	mov    0x8(%rsp),%eax
    73f5:	8b 4c 24 0b          	mov    0xb(%rsp),%ecx
    73f9:	89 43 29             	mov    %eax,0x29(%rbx)
    73fc:	89 4b 2c             	mov    %ecx,0x2c(%rbx)
    73ff:	45 84 f6             	test   %r14b,%r14b
    7402:	74 36                	je     743a <_ZN3std2io5stdio6stderr17h2320c95d3642fba6E+0x17a>
    7404:	f0 48 83 03 01       	lock addq $0x1,(%rbx)
    7409:	7e 6d                	jle    7478 <_ZN3std2io5stdio6stderr17h2320c95d3642fba6E+0x1b8>
    740b:	bf 08 00 00 00       	mov    $0x8,%edi
    7410:	be 08 00 00 00       	mov    $0x8,%esi
    7415:	ff 15 f5 c7 02 00    	callq  *0x2c7f5(%rip)        # 33c10 <_GLOBAL_OFFSET_TABLE_+0x2b0>
    741b:	48 85 c0             	test   %rax,%rax
    741e:	74 51                	je     7471 <_ZN3std2io5stdio6stderr17h2320c95d3642fba6E+0x1b1>
    7420:	48 89 18             	mov    %rbx,(%rax)
    7423:	48 89 05 5e cc 02 00 	mov    %rax,0x2cc5e(%rip)        # 34088 <_ZN3std2io5stdio6stderr8INSTANCE17hf8b34891d284e8e7E+0x28>
    742a:	eb 0e                	jmp    743a <_ZN3std2io5stdio6stderr17h2320c95d3642fba6E+0x17a>
    742c:	31 db                	xor    %ebx,%ebx
    742e:	eb 0a                	jmp    743a <_ZN3std2io5stdio6stderr17h2320c95d3642fba6E+0x17a>
    7430:	48 8b 18             	mov    (%rax),%rbx
    7433:	f0 48 83 03 01       	lock addq $0x1,(%rbx)
    7438:	7e 3e                	jle    7478 <_ZN3std2io5stdio6stderr17h2320c95d3642fba6E+0x1b8>
    743a:	48 8d 3d 1f cc 02 00 	lea    0x2cc1f(%rip),%rdi        # 34060 <_ZN3std2io5stdio6stderr8INSTANCE17hf8b34891d284e8e7E>
    7441:	ff 15 b9 c9 02 00    	callq  *0x2c9b9(%rip)        # 33e00 <pthread_mutex_unlock@GLIBC_2.2.5>
    7447:	48 89 5c 24 18       	mov    %rbx,0x18(%rsp)
    744c:	48 85 db             	test   %rbx,%rbx
    744f:	74 0c                	je     745d <_ZN3std2io5stdio6stderr17h2320c95d3642fba6E+0x19d>
    7451:	48 89 d8             	mov    %rbx,%rax
    7454:	48 83 c4 30          	add    $0x30,%rsp
    7458:	5b                   	pop    %rbx
    7459:	41 5e                	pop    %r14
    745b:	5d                   	pop    %rbp
    745c:	c3                   	retq   
    745d:	48 8d 3d 83 f6 01 00 	lea    0x1f683(%rip),%rdi        # 26ae7 <_fini+0x198b>
    7464:	be 24 00 00 00       	mov    $0x24,%esi
    7469:	ff 15 d9 c8 02 00    	callq  *0x2c8d9(%rip)        # 33d48 <_GLOBAL_OFFSET_TABLE_+0x3e8>
    746f:	0f 0b                	ud2    
    7471:	bf 08 00 00 00       	mov    $0x8,%edi
    7476:	eb 10                	jmp    7488 <_ZN3std2io5stdio6stderr17h2320c95d3642fba6E+0x1c8>
    7478:	0f 0b                	ud2    
    747a:	0f 0b                	ud2    
    747c:	bf 28 00 00 00       	mov    $0x28,%edi
    7481:	eb 05                	jmp    7488 <_ZN3std2io5stdio6stderr17h2320c95d3642fba6E+0x1c8>
    7483:	bf 30 00 00 00       	mov    $0x30,%edi
    7488:	be 08 00 00 00       	mov    $0x8,%esi
    748d:	ff 15 1d c7 02 00    	callq  *0x2c71d(%rip)        # 33bb0 <_GLOBAL_OFFSET_TABLE_+0x250>
    7493:	0f 0b                	ud2    
    7495:	48 89 c3             	mov    %rax,%rbx
    7498:	48 8d 7c 24 18       	lea    0x18(%rsp),%rdi
    749d:	e8 ae de ff ff       	callq  5350 <_ZN4core3ptr18real_drop_in_place17hf4125b2281ae60b7E>
    74a2:	eb 0d                	jmp    74b1 <_ZN3std2io5stdio6stderr17h2320c95d3642fba6E+0x1f1>
    74a4:	48 89 c3             	mov    %rax,%rbx
    74a7:	48 8d 7c 24 18       	lea    0x18(%rsp),%rdi
    74ac:	e8 1f db ff ff       	callq  4fd0 <_ZN4core3ptr18real_drop_in_place17h5cd56ca2e2d6b4ccE>
    74b1:	48 89 df             	mov    %rbx,%rdi
    74b4:	e8 f7 cc ff ff       	callq  41b0 <_Unwind_Resume@plt>
    74b9:	0f 0b                	ud2    
    74bb:	0f 1f 44 00 00       	nopl   0x0(%rax,%rax,1)

00000000000074c0 <_ZN57_$LT$std..io..stdio..Stderr$u20$as$u20$std..io..Write$GT$9write_fmt17h037a6ce59e5ae0eeE>:
    74c0:	41 57                	push   %r15
    74c2:	41 56                	push   %r14
    74c4:	41 55                	push   %r13
    74c6:	41 54                	push   %r12
    74c8:	53                   	push   %rbx
    74c9:	48 83 ec 60          	sub    $0x60,%rsp
    74cd:	49 89 d4             	mov    %rdx,%r12
    74d0:	49 89 fe             	mov    %rdi,%r14
    74d3:	48 8b 1e             	mov    (%rsi),%rbx
    74d6:	4c 8d 6b 10          	lea    0x10(%rbx),%r13
    74da:	48 8b 7b 10          	mov    0x10(%rbx),%rdi
    74de:	ff 15 ec ca 02 00    	callq  *0x2caec(%rip)        # 33fd0 <pthread_mutex_lock@GLIBC_2.2.5>
    74e4:	66 66 66 64 48 8b 04 	data16 data16 data16 mov %fs:0x0,%rax
    74eb:	25 00 00 00 00 
    74f0:	49 89 c7             	mov    %rax,%r15
    74f3:	48 83 b8 e8 ff ff ff 	cmpq   $0x1,-0x18(%rax)
    74fa:	01 
    74fb:	75 0c                	jne    7509 <_ZN57_$LT$std..io..stdio..Stderr$u20$as$u20$std..io..Write$GT$9write_fmt17h037a6ce59e5ae0eeE+0x49>
    74fd:	4c 89 f8             	mov    %r15,%rax
    7500:	49 8b 8f f0 ff ff ff 	mov    -0x10(%r15),%rcx
    7507:	eb 1b                	jmp    7524 <_ZN57_$LT$std..io..stdio..Stderr$u20$as$u20$std..io..Write$GT$9write_fmt17h037a6ce59e5ae0eeE+0x64>
    7509:	4c 89 f8             	mov    %r15,%rax
    750c:	49 c7 87 e8 ff ff ff 	movq   $0x1,-0x18(%r15)
    7513:	01 00 00 00 
    7517:	49 c7 87 f0 ff ff ff 	movq   $0x0,-0x10(%r15)
    751e:	00 00 00 00 
    7522:	31 c9                	xor    %ecx,%ecx
    7524:	49 89 8f f0 ff ff ff 	mov    %rcx,-0x10(%r15)
    752b:	48 85 c9             	test   %rcx,%rcx
    752e:	8a 43 28             	mov    0x28(%rbx),%al
    7531:	4c 89 6c 24 20       	mov    %r13,0x20(%rsp)
    7536:	0f 95 44 24 28       	setne  0x28(%rsp)
    753b:	48 8d 44 24 20       	lea    0x20(%rsp),%rax
    7540:	48 89 44 24 08       	mov    %rax,0x8(%rsp)
    7545:	c6 44 24 10 03       	movb   $0x3,0x10(%rsp)
    754a:	41 0f 10 04 24       	movups (%r12),%xmm0
    754f:	41 0f 10 4c 24 10    	movups 0x10(%r12),%xmm1
    7555:	41 0f 10 54 24 20    	movups 0x20(%r12),%xmm2
    755b:	0f 29 54 24 50       	movaps %xmm2,0x50(%rsp)
    7560:	0f 29 4c 24 40       	movaps %xmm1,0x40(%rsp)
    7565:	0f 29 44 24 30       	movaps %xmm0,0x30(%rsp)
    756a:	48 8d 35 4f af 02 00 	lea    0x2af4f(%rip),%rsi        # 324c0 <anon.2a2a8279f82dd18d5d6ec8aaf5193350.2.llvm.9782508449811801216+0x4f8>
    7571:	48 8d 7c 24 08       	lea    0x8(%rsp),%rdi
    7576:	48 8d 54 24 30       	lea    0x30(%rsp),%rdx
    757b:	ff 15 af c6 02 00    	callq  *0x2c6af(%rip)        # 33c30 <_GLOBAL_OFFSET_TABLE_+0x2d0>
    7581:	84 c0                	test   %al,%al
    7583:	0f 84 ce 00 00 00    	je     7657 <_ZN57_$LT$std..io..stdio..Stderr$u20$as$u20$std..io..Write$GT$9write_fmt17h037a6ce59e5ae0eeE+0x197>
    7589:	80 7c 24 10 03       	cmpb   $0x3,0x10(%rsp)
    758e:	0f 85 12 01 00 00    	jne    76a6 <_ZN57_$LT$std..io..stdio..Stderr$u20$as$u20$std..io..Write$GT$9write_fmt17h037a6ce59e5ae0eeE+0x1e6>
    7594:	bf 0f 00 00 00       	mov    $0xf,%edi
    7599:	be 01 00 00 00       	mov    $0x1,%esi
    759e:	ff 15 6c c6 02 00    	callq  *0x2c66c(%rip)        # 33c10 <_GLOBAL_OFFSET_TABLE_+0x2b0>
    75a4:	48 85 c0             	test   %rax,%rax
    75a7:	0f 84 76 01 00 00    	je     7723 <_ZN57_$LT$std..io..stdio..Stderr$u20$as$u20$std..io..Write$GT$9write_fmt17h037a6ce59e5ae0eeE+0x263>
    75ad:	49 89 c4             	mov    %rax,%r12
    75b0:	48 8b 05 a8 f5 01 00 	mov    0x1f5a8(%rip),%rax        # 26b5f <_fini+0x1a03>
    75b7:	49 89 44 24 07       	mov    %rax,0x7(%r12)
    75bc:	48 8b 05 95 f5 01 00 	mov    0x1f595(%rip),%rax        # 26b58 <_fini+0x19fc>
    75c3:	49 89 04 24          	mov    %rax,(%r12)
    75c7:	bf 18 00 00 00       	mov    $0x18,%edi
    75cc:	be 08 00 00 00       	mov    $0x8,%esi
    75d1:	ff 15 39 c6 02 00    	callq  *0x2c639(%rip)        # 33c10 <_GLOBAL_OFFSET_TABLE_+0x2b0>
    75d7:	48 85 c0             	test   %rax,%rax
    75da:	0f 84 31 01 00 00    	je     7711 <_ZN57_$LT$std..io..stdio..Stderr$u20$as$u20$std..io..Write$GT$9write_fmt17h037a6ce59e5ae0eeE+0x251>
    75e0:	48 89 c3             	mov    %rax,%rbx
    75e3:	4c 89 20             	mov    %r12,(%rax)
    75e6:	48 c7 40 08 0f 00 00 	movq   $0xf,0x8(%rax)
    75ed:	00 
    75ee:	48 c7 40 10 0f 00 00 	movq   $0xf,0x10(%rax)
    75f5:	00 
    75f6:	bf 18 00 00 00       	mov    $0x18,%edi
    75fb:	be 08 00 00 00       	mov    $0x8,%esi
    7600:	ff 15 0a c6 02 00    	callq  *0x2c60a(%rip)        # 33c10 <_GLOBAL_OFFSET_TABLE_+0x2b0>
    7606:	48 85 c0             	test   %rax,%rax
    7609:	0f 84 02 01 00 00    	je     7711 <_ZN57_$LT$std..io..stdio..Stderr$u20$as$u20$std..io..Write$GT$9write_fmt17h037a6ce59e5ae0eeE+0x251>
    760f:	48 89 18             	mov    %rbx,(%rax)
    7612:	48 8d 0d 5f ad 02 00 	lea    0x2ad5f(%rip),%rcx        # 32378 <anon.2a2a8279f82dd18d5d6ec8aaf5193350.2.llvm.9782508449811801216+0x3b0>
    7619:	48 89 48 08          	mov    %rcx,0x8(%rax)
    761d:	c6 40 10 10          	movb   $0x10,0x10(%rax)
    7621:	8b 4c 24 30          	mov    0x30(%rsp),%ecx
    7625:	8b 54 24 33          	mov    0x33(%rsp),%edx
    7629:	89 50 14             	mov    %edx,0x14(%rax)
    762c:	89 48 11             	mov    %ecx,0x11(%rax)
    762f:	8b 4c 24 30          	mov    0x30(%rsp),%ecx
    7633:	8b 54 24 33          	mov    0x33(%rsp),%edx
    7637:	89 0c 24             	mov    %ecx,(%rsp)
    763a:	89 54 24 03          	mov    %edx,0x3(%rsp)
    763e:	41 c6 06 02          	movb   $0x2,(%r14)
    7642:	8b 0c 24             	mov    (%rsp),%ecx
    7645:	8b 54 24 03          	mov    0x3(%rsp),%edx
    7649:	41 89 4e 01          	mov    %ecx,0x1(%r14)
    764d:	41 89 56 04          	mov    %edx,0x4(%r14)
    7651:	49 89 46 08          	mov    %rax,0x8(%r14)
    7655:	eb 5b                	jmp    76b2 <_ZN57_$LT$std..io..stdio..Stderr$u20$as$u20$std..io..Write$GT$9write_fmt17h037a6ce59e5ae0eeE+0x1f2>
    7657:	41 c6 06 03          	movb   $0x3,(%r14)
    765b:	8a 44 24 10          	mov    0x10(%rsp),%al
    765f:	3c 03                	cmp    $0x3,%al
    7661:	77 04                	ja     7667 <_ZN57_$LT$std..io..stdio..Stderr$u20$as$u20$std..io..Write$GT$9write_fmt17h037a6ce59e5ae0eeE+0x1a7>
    7663:	3c 02                	cmp    $0x2,%al
    7665:	75 4b                	jne    76b2 <_ZN57_$LT$std..io..stdio..Stderr$u20$as$u20$std..io..Write$GT$9write_fmt17h037a6ce59e5ae0eeE+0x1f2>
    7667:	48 8b 5c 24 18       	mov    0x18(%rsp),%rbx
    766c:	48 8b 3b             	mov    (%rbx),%rdi
    766f:	48 8b 43 08          	mov    0x8(%rbx),%rax
    7673:	ff 10                	callq  *(%rax)
    7675:	48 8b 43 08          	mov    0x8(%rbx),%rax
    7679:	48 8b 70 08          	mov    0x8(%rax),%rsi
    767d:	48 85 f6             	test   %rsi,%rsi
    7680:	74 0d                	je     768f <_ZN57_$LT$std..io..stdio..Stderr$u20$as$u20$std..io..Write$GT$9write_fmt17h037a6ce59e5ae0eeE+0x1cf>
    7682:	48 8b 3b             	mov    (%rbx),%rdi
    7685:	48 8b 50 10          	mov    0x10(%rax),%rdx
    7689:	ff 15 e9 c5 02 00    	callq  *0x2c5e9(%rip)        # 33c78 <_GLOBAL_OFFSET_TABLE_+0x318>
    768f:	48 8b 7c 24 18       	mov    0x18(%rsp),%rdi
    7694:	be 18 00 00 00       	mov    $0x18,%esi
    7699:	ba 08 00 00 00       	mov    $0x8,%edx
    769e:	ff 15 d4 c5 02 00    	callq  *0x2c5d4(%rip)        # 33c78 <_GLOBAL_OFFSET_TABLE_+0x318>
    76a4:	eb 0c                	jmp    76b2 <_ZN57_$LT$std..io..stdio..Stderr$u20$as$u20$std..io..Write$GT$9write_fmt17h037a6ce59e5ae0eeE+0x1f2>
    76a6:	48 8d 44 24 10       	lea    0x10(%rsp),%rax
    76ab:	0f 10 00             	movups (%rax),%xmm0
    76ae:	41 0f 11 06          	movups %xmm0,(%r14)
    76b2:	48 8b 4c 24 20       	mov    0x20(%rsp),%rcx
    76b7:	80 7c 24 28 00       	cmpb   $0x0,0x28(%rsp)
    76bc:	75 39                	jne    76f7 <_ZN57_$LT$std..io..stdio..Stderr$u20$as$u20$std..io..Write$GT$9write_fmt17h037a6ce59e5ae0eeE+0x237>
    76be:	4c 89 f8             	mov    %r15,%rax
    76c1:	49 83 bf e8 ff ff ff 	cmpq   $0x1,-0x18(%r15)
    76c8:	01 
    76c9:	75 13                	jne    76de <_ZN57_$LT$std..io..stdio..Stderr$u20$as$u20$std..io..Write$GT$9write_fmt17h037a6ce59e5ae0eeE+0x21e>
    76cb:	4c 89 f8             	mov    %r15,%rax
    76ce:	49 83 bf f0 ff ff ff 	cmpq   $0x0,-0x10(%r15)
    76d5:	00 
    76d6:	74 1f                	je     76f7 <_ZN57_$LT$std..io..stdio..Stderr$u20$as$u20$std..io..Write$GT$9write_fmt17h037a6ce59e5ae0eeE+0x237>
    76d8:	c6 41 18 01          	movb   $0x1,0x18(%rcx)
    76dc:	eb 19                	jmp    76f7 <_ZN57_$LT$std..io..stdio..Stderr$u20$as$u20$std..io..Write$GT$9write_fmt17h037a6ce59e5ae0eeE+0x237>
    76de:	4c 89 f8             	mov    %r15,%rax
    76e1:	49 c7 87 e8 ff ff ff 	movq   $0x1,-0x18(%r15)
    76e8:	01 00 00 00 
    76ec:	49 c7 87 f0 ff ff ff 	movq   $0x0,-0x10(%r15)
    76f3:	00 00 00 00 
    76f7:	48 8b 39             	mov    (%rcx),%rdi
    76fa:	ff 15 00 c7 02 00    	callq  *0x2c700(%rip)        # 33e00 <pthread_mutex_unlock@GLIBC_2.2.5>
    7700:	4c 89 f0             	mov    %r14,%rax
    7703:	48 83 c4 60          	add    $0x60,%rsp
    7707:	5b                   	pop    %rbx
    7708:	41 5c                	pop    %r12
    770a:	41 5d                	pop    %r13
    770c:	41 5e                	pop    %r14
    770e:	41 5f                	pop    %r15
    7710:	c3                   	retq   
    7711:	bf 18 00 00 00       	mov    $0x18,%edi
    7716:	be 08 00 00 00       	mov    $0x8,%esi
    771b:	ff 15 8f c4 02 00    	callq  *0x2c48f(%rip)        # 33bb0 <_GLOBAL_OFFSET_TABLE_+0x250>
    7721:	0f 0b                	ud2    
    7723:	bf 0f 00 00 00       	mov    $0xf,%edi
    7728:	be 01 00 00 00       	mov    $0x1,%esi
    772d:	ff 15 7d c4 02 00    	callq  *0x2c47d(%rip)        # 33bb0 <_GLOBAL_OFFSET_TABLE_+0x250>
    7733:	0f 0b                	ud2    
    7735:	49 89 c6             	mov    %rax,%r14
    7738:	48 8b 3b             	mov    (%rbx),%rdi
    773b:	48 8b 73 08          	mov    0x8(%rbx),%rsi
    773f:	e8 fc e0 ff ff       	callq  5840 <_ZN5alloc5alloc8box_free17h2a75dddd895d38ecE>
    7744:	48 8b 7c 24 18       	mov    0x18(%rsp),%rdi
    7749:	e8 e2 e0 ff ff       	callq  5830 <_ZN5alloc5alloc8box_free17h287287f638fe20d7E>
    774e:	eb 0d                	jmp    775d <_ZN57_$LT$std..io..stdio..Stderr$u20$as$u20$std..io..Write$GT$9write_fmt17h037a6ce59e5ae0eeE+0x29d>
    7750:	49 89 c6             	mov    %rax,%r14
    7753:	48 8d 7c 24 08       	lea    0x8(%rsp),%rdi
    7758:	e8 f3 d6 ff ff       	callq  4e50 <_ZN4core3ptr18real_drop_in_place17h3e3abafb8f3f6099E>
    775d:	48 8d 7c 24 20       	lea    0x20(%rsp),%rdi
    7762:	e8 09 da ff ff       	callq  5170 <_ZN4core3ptr18real_drop_in_place17h9117565094ecfebcE>
    7767:	4c 89 f7             	mov    %r14,%rdi
    776a:	e8 41 ca ff ff       	callq  41b0 <_Unwind_Resume@plt>
    776f:	0f 0b                	ud2    
    7771:	49 89 c6             	mov    %rax,%r14
    7774:	eb e7                	jmp    775d <_ZN57_$LT$std..io..stdio..Stderr$u20$as$u20$std..io..Write$GT$9write_fmt17h037a6ce59e5ae0eeE+0x29d>
    7776:	66 2e 0f 1f 84 00 00 	nopw   %cs:0x0(%rax,%rax,1)
    777d:	00 00 00 

0000000000007780 <_ZN3std2io5stdio9set_panic17h4a4c600add5e1586E>:
    7780:	41 57                	push   %r15
    7782:	41 56                	push   %r14
    7784:	53                   	push   %rbx
    7785:	48 83 ec 30          	sub    $0x30,%rsp
    7789:	48 89 f2             	mov    %rsi,%rdx
    778c:	48 89 fe             	mov    %rdi,%rsi
    778f:	48 8d 7c 24 08       	lea    0x8(%rsp),%rdi
    7794:	e8 97 e1 ff ff       	callq  5930 <_ZN3std6thread5local17LocalKey$LT$T$GT$8try_with17h586aecdf442bdd9cE>
    7799:	48 83 7c 24 08 01    	cmpq   $0x1,0x8(%rsp)
    779f:	74 7c                	je     781d <_ZN3std2io5stdio9set_panic17h4a4c600add5e1586E+0x9d>
    77a1:	48 8b 5c 24 10       	mov    0x10(%rsp),%rbx
    77a6:	4c 8b 74 24 18       	mov    0x18(%rsp),%r14
    77ab:	48 85 db             	test   %rbx,%rbx
    77ae:	74 5d                	je     780d <_ZN3std2io5stdio9set_panic17h4a4c600add5e1586E+0x8d>
    77b0:	48 89 5c 24 20       	mov    %rbx,0x20(%rsp)
    77b5:	4c 89 74 24 28       	mov    %r14,0x28(%rsp)
    77ba:	48 8d 7c 24 08       	lea    0x8(%rsp),%rdi
    77bf:	48 89 de             	mov    %rbx,%rsi
    77c2:	41 ff 56 28          	callq  *0x28(%r14)
    77c6:	8a 44 24 08          	mov    0x8(%rsp),%al
    77ca:	3c 03                	cmp    $0x3,%al
    77cc:	77 04                	ja     77d2 <_ZN3std2io5stdio9set_panic17h4a4c600add5e1586E+0x52>
    77ce:	3c 02                	cmp    $0x2,%al
    77d0:	75 3b                	jne    780d <_ZN3std2io5stdio9set_panic17h4a4c600add5e1586E+0x8d>
    77d2:	4c 8b 7c 24 10       	mov    0x10(%rsp),%r15
    77d7:	49 8b 3f             	mov    (%r15),%rdi
    77da:	49 8b 47 08          	mov    0x8(%r15),%rax
    77de:	ff 10                	callq  *(%rax)
    77e0:	49 8b 47 08          	mov    0x8(%r15),%rax
    77e4:	48 8b 70 08          	mov    0x8(%rax),%rsi
    77e8:	48 85 f6             	test   %rsi,%rsi
    77eb:	74 0d                	je     77fa <_ZN3std2io5stdio9set_panic17h4a4c600add5e1586E+0x7a>
    77ed:	49 8b 3f             	mov    (%r15),%rdi
    77f0:	48 8b 50 10          	mov    0x10(%rax),%rdx
    77f4:	ff 15 7e c4 02 00    	callq  *0x2c47e(%rip)        # 33c78 <_GLOBAL_OFFSET_TABLE_+0x318>
    77fa:	be 18 00 00 00       	mov    $0x18,%esi
    77ff:	ba 08 00 00 00       	mov    $0x8,%edx
    7804:	4c 89 ff             	mov    %r15,%rdi
    7807:	ff 15 6b c4 02 00    	callq  *0x2c46b(%rip)        # 33c78 <_GLOBAL_OFFSET_TABLE_+0x318>
    780d:	48 89 d8             	mov    %rbx,%rax
    7810:	4c 89 f2             	mov    %r14,%rdx
    7813:	48 83 c4 30          	add    $0x30,%rsp
    7817:	5b                   	pop    %rbx
    7818:	41 5e                	pop    %r14
    781a:	41 5f                	pop    %r15
    781c:	c3                   	retq   
    781d:	48 8d 3d cb ef 01 00 	lea    0x1efcb(%rip),%rdi        # 267ef <_fini+0x1693>
    7824:	48 8d 0d 5d a9 02 00 	lea    0x2a95d(%rip),%rcx        # 32188 <anon.2a2a8279f82dd18d5d6ec8aaf5193350.2.llvm.9782508449811801216+0x1c0>
    782b:	48 8d 54 24 20       	lea    0x20(%rsp),%rdx
    7830:	be 46 00 00 00       	mov    $0x46,%esi
    7835:	ff 15 45 c3 02 00    	callq  *0x2c345(%rip)        # 33b80 <_GLOBAL_OFFSET_TABLE_+0x220>
    783b:	0f 0b                	ud2    
    783d:	48 89 c3             	mov    %rax,%rbx
    7840:	49 8b 3f             	mov    (%r15),%rdi
    7843:	49 8b 77 08          	mov    0x8(%r15),%rsi
    7847:	e8 f4 df ff ff       	callq  5840 <_ZN5alloc5alloc8box_free17h2a75dddd895d38ecE>
    784c:	4c 89 ff             	mov    %r15,%rdi
    784f:	e8 dc df ff ff       	callq  5830 <_ZN5alloc5alloc8box_free17h287287f638fe20d7E>
    7854:	eb 03                	jmp    7859 <_ZN3std2io5stdio9set_panic17h4a4c600add5e1586E+0xd9>
    7856:	48 89 c3             	mov    %rax,%rbx
    7859:	48 8d 7c 24 20       	lea    0x20(%rsp),%rdi
    785e:	e8 1d db ff ff       	callq  5380 <_ZN4core3ptr18real_drop_in_place17hfb16540ad468e748E>
    7863:	48 89 df             	mov    %rbx,%rdi
    7866:	e8 45 c9 ff ff       	callq  41b0 <_Unwind_Resume@plt>
    786b:	0f 0b                	ud2    
    786d:	0f 1f 00             	nopl   (%rax)

0000000000007870 <_ZN3std2io5stdio7_eprint17hef2f6fba75212bbeE>:
    7870:	53                   	push   %rbx
    7871:	48 81 ec c0 00 00 00 	sub    $0xc0,%rsp
    7878:	0f 10 07             	movups (%rdi),%xmm0
    787b:	0f 10 4f 10          	movups 0x10(%rdi),%xmm1
    787f:	0f 10 57 20          	movups 0x20(%rdi),%xmm2
    7883:	0f 29 94 24 a0 00 00 	movaps %xmm2,0xa0(%rsp)
    788a:	00 
    788b:	0f 29 8c 24 90 00 00 	movaps %xmm1,0x90(%rsp)
    7892:	00 
    7893:	0f 29 84 24 80 00 00 	movaps %xmm0,0x80(%rsp)
    789a:	00 
    789b:	48 8d 05 94 f2 01 00 	lea    0x1f294(%rip),%rax        # 26b36 <_fini+0x19da>
    78a2:	48 89 84 24 b0 00 00 	mov    %rax,0xb0(%rsp)
    78a9:	00 
    78aa:	48 c7 84 24 b8 00 00 	movq   $0x6,0xb8(%rsp)
    78b1:	00 06 00 00 00 
    78b6:	66 66 66 64 48 8b 04 	data16 data16 data16 mov %fs:0x0,%rax
    78bd:	25 00 00 00 00 
    78c2:	48 83 b8 c0 ff ff ff 	cmpq   $0x1,-0x40(%rax)
    78c9:	01 
    78ca:	0f 85 f8 01 00 00    	jne    7ac8 <_ZN3std2io5stdio7_eprint17hef2f6fba75212bbeE+0x258>
    78d0:	48 8d 98 c8 ff ff ff 	lea    -0x38(%rax),%rbx
    78d7:	48 83 3b 00          	cmpq   $0x0,(%rbx)
    78db:	74 5d                	je     793a <_ZN3std2io5stdio7_eprint17hef2f6fba75212bbeE+0xca>
    78dd:	ff 15 65 c6 02 00    	callq  *0x2c665(%rip)        # 33f48 <_GLOBAL_OFFSET_TABLE_+0x5e8>
    78e3:	48 89 c3             	mov    %rax,%rbx
    78e6:	48 89 44 24 20       	mov    %rax,0x20(%rsp)
    78eb:	0f 28 84 24 80 00 00 	movaps 0x80(%rsp),%xmm0
    78f2:	00 
    78f3:	0f 28 8c 24 90 00 00 	movaps 0x90(%rsp),%xmm1
    78fa:	00 
    78fb:	0f 28 94 24 a0 00 00 	movaps 0xa0(%rsp),%xmm2
    7902:	00 
    7903:	0f 29 54 24 70       	movaps %xmm2,0x70(%rsp)
    7908:	0f 29 4c 24 60       	movaps %xmm1,0x60(%rsp)
    790d:	0f 29 44 24 50       	movaps %xmm0,0x50(%rsp)
    7912:	48 8d 7c 24 10       	lea    0x10(%rsp),%rdi
    7917:	48 8d 74 24 20       	lea    0x20(%rsp),%rsi
    791c:	48 8d 54 24 50       	lea    0x50(%rsp),%rdx
    7921:	ff 15 39 c4 02 00    	callq  *0x2c439(%rip)        # 33d60 <_GLOBAL_OFFSET_TABLE_+0x400>
    7927:	f0 48 83 2b 01       	lock subq $0x1,(%rbx)
    792c:	75 6a                	jne    7998 <_ZN3std2io5stdio7_eprint17hef2f6fba75212bbeE+0x128>
    792e:	48 8d 7c 24 20       	lea    0x20(%rsp),%rdi
    7933:	e8 98 de ff ff       	callq  57d0 <_ZN5alloc4sync12Arc$LT$T$GT$9drop_slow17ha0c32ee3838644daE>
    7938:	eb 5e                	jmp    7998 <_ZN3std2io5stdio7_eprint17hef2f6fba75212bbeE+0x128>
    793a:	48 c7 03 ff ff ff ff 	movq   $0xffffffffffffffff,(%rbx)
    7941:	48 8d 43 08          	lea    0x8(%rbx),%rax
    7945:	48 89 44 24 20       	mov    %rax,0x20(%rsp)
    794a:	48 89 5c 24 28       	mov    %rbx,0x28(%rsp)
    794f:	48 8b 73 08          	mov    0x8(%rbx),%rsi
    7953:	48 85 f6             	test   %rsi,%rsi
    7956:	0f 84 60 01 00 00    	je     7abc <_ZN3std2io5stdio7_eprint17hef2f6fba75212bbeE+0x24c>
    795c:	48 8b 43 10          	mov    0x10(%rbx),%rax
    7960:	0f 28 84 24 80 00 00 	movaps 0x80(%rsp),%xmm0
    7967:	00 
    7968:	0f 28 8c 24 90 00 00 	movaps 0x90(%rsp),%xmm1
    796f:	00 
    7970:	0f 28 94 24 a0 00 00 	movaps 0xa0(%rsp),%xmm2
    7977:	00 
    7978:	0f 29 54 24 70       	movaps %xmm2,0x70(%rsp)
    797d:	0f 29 4c 24 60       	movaps %xmm1,0x60(%rsp)
    7982:	0f 29 44 24 50       	movaps %xmm0,0x50(%rsp)
    7987:	48 8d 7c 24 10       	lea    0x10(%rsp),%rdi
    798c:	48 8d 54 24 50       	lea    0x50(%rsp),%rdx
    7991:	ff 50 38             	callq  *0x38(%rax)
    7994:	48 83 03 01          	addq   $0x1,(%rbx)
    7998:	8a 44 24 10          	mov    0x10(%rsp),%al
    799c:	8b 4c 24 11          	mov    0x11(%rsp),%ecx
    79a0:	89 4c 24 08          	mov    %ecx,0x8(%rsp)
    79a4:	8b 4c 24 14          	mov    0x14(%rsp),%ecx
    79a8:	89 4c 24 0b          	mov    %ecx,0xb(%rsp)
    79ac:	3c 04                	cmp    $0x4,%al
    79ae:	75 6c                	jne    7a1c <_ZN3std2io5stdio7_eprint17hef2f6fba75212bbeE+0x1ac>
    79b0:	ff 15 92 c5 02 00    	callq  *0x2c592(%rip)        # 33f48 <_GLOBAL_OFFSET_TABLE_+0x5e8>
    79b6:	48 89 c3             	mov    %rax,%rbx
    79b9:	48 89 44 24 20       	mov    %rax,0x20(%rsp)
    79be:	0f 28 84 24 80 00 00 	movaps 0x80(%rsp),%xmm0
    79c5:	00 
    79c6:	0f 28 8c 24 90 00 00 	movaps 0x90(%rsp),%xmm1
    79cd:	00 
    79ce:	0f 28 94 24 a0 00 00 	movaps 0xa0(%rsp),%xmm2
    79d5:	00 
    79d6:	0f 29 54 24 70       	movaps %xmm2,0x70(%rsp)
    79db:	0f 29 4c 24 60       	movaps %xmm1,0x60(%rsp)
    79e0:	0f 29 44 24 50       	movaps %xmm0,0x50(%rsp)
    79e5:	48 8d 7c 24 40       	lea    0x40(%rsp),%rdi
    79ea:	48 8d 74 24 20       	lea    0x20(%rsp),%rsi
    79ef:	48 8d 54 24 50       	lea    0x50(%rsp),%rdx
    79f4:	ff 15 66 c3 02 00    	callq  *0x2c366(%rip)        # 33d60 <_GLOBAL_OFFSET_TABLE_+0x400>
    79fa:	f0 48 83 2b 01       	lock subq $0x1,(%rbx)
    79ff:	75 0a                	jne    7a0b <_ZN3std2io5stdio7_eprint17hef2f6fba75212bbeE+0x19b>
    7a01:	48 8d 7c 24 20       	lea    0x20(%rsp),%rdi
    7a06:	e8 c5 dd ff ff       	callq  57d0 <_ZN5alloc4sync12Arc$LT$T$GT$9drop_slow17ha0c32ee3838644daE>
    7a0b:	8a 44 24 40          	mov    0x40(%rsp),%al
    7a0f:	3c 03                	cmp    $0x3,%al
    7a11:	75 2b                	jne    7a3e <_ZN3std2io5stdio7_eprint17hef2f6fba75212bbeE+0x1ce>
